(lp0
(lp1
F0.0
aF0.0
a(lp2
F6.000579303272111
aF1.0084323764172425
aF-0.0011307446792885867
aa(lp3
F5.406292154115324e-05
aF-0.003998424449662674
aF-6.572281349415483e-05
aF0.9999920026478375
aa(F2.5915956497192383
F2.504514694213867
F2.482513666152954
F2.408201217651367
F2.2705061435699463
F2.4134771823883057
F2.2056655883789062
F2.219139814376831
F2.1369106769561768
F2.2544567584991455
F2.21987247467041
F2.041494131088257
F2.118246078491211
F1.9970850944519043
F1.9717191457748413
F2.213122606277466
F2.344074010848999
F2.076047420501709
F2.0625925064086914
F2.129287004470825
F2.313162088394165
F2.145589828491211
F2.081920623779297
F2.198411703109741
F2.111114740371704
F2.1585495471954346
F2.1827361583709717
F2.124704122543335
F2.093129873275757
F2.130793809890747
Fnan
F2.145742654800415
F2.071812868118286
Fnan
F2.1445834636688232
F1.9327523708343506
F2.2255752086639404
F2.0489673614501953
F2.228631019592285
F2.0590691566467285
F2.2574479579925537
F2.368468761444092
F2.1578850746154785
F2.1308019161224365
F2.230593204498291
F2.2198362350463867
F2.202522039413452
F2.1906821727752686
F2.205059289932251
F2.2413954734802246
F2.3336217403411865
F2.2982709407806396
F2.217603921890259
F2.5084598064422607
tp4
aa(lp5
F0.0
aF1.0
a(lp6
F7.000623327267837
aF1.0088828952873723
aF-0.0011307682515637185
aa(lp7
F4.0928849879886856e-05
aF-0.003998510058685527
aF-9.460390894594964e-05
aF0.9999920006141251
aa(F1.3204398155212402
F1.274515986442566
F1.2155272960662842
F1.2051218748092651
F1.0992306470870972
F0.9960967898368835
F1.1365565061569214
F1.2296528816223145
F1.2353001832962036
F1.1873176097869873
F1.0912091732025146
F0.9562477469444275
F1.2795727252960205
F1.1896435022354126
F1.1136795282363892
F1.064409852027893
F1.004449725151062
F1.1403590440750122
F1.2811150550842285
F1.0343501567840576
F1.1460076570510864
F1.0500214099884033
F0.9971336126327515
F1.082440733909607
F1.1385408639907837
F1.0509018898010254
F1.051505446434021
F1.0969533920288086
F0.9419955015182495
F0.9346000552177429
Fnan
F1.112317442893982
F1.130576491355896
Fnan
F1.0613144636154175
F1.2630149126052856
F0.8823263049125671
F1.1773866415023804
F1.2020959854125977
F1.1626709699630737
F1.1012381315231323
F1.0424492359161377
F1.0774606466293335
F1.1345860958099365
F1.283724308013916
F1.0329474210739136
F1.2095012664794922
F0.9982817769050598
F1.2294354438781738
F1.1104477643966675
F1.3512659072875977
F1.1560484170913696
F1.2087286710739136
F1.2762808799743652
tp8
aa(lp9
F1.5707963267948966
aF0.0
a(lp10
F7.000686232501464
aF1.0096773655698563
aF-0.001130772940159841
aa(lp11
F0.0028346451330711407
aF-0.0028200203822770268
aF0.7070587365483946
aF0.7071435182073021
aa(F2.1265740394592285
F2.1263811588287354
F2.386751413345337
F2.1191749572753906
F2.2265422344207764
F2.5033652782440186
F2.5070977210998535
F2.6720428466796875
F2.773221254348755
F3.066516876220703
F3.2469565868377686
F3.494828224182129
F3.493901252746582
F3.655655860900879
F4.041907787322998
F4.464071273803711
F4.756598949432373
Fnan
Fnan
Fnan
Fnan
Fnan
Fnan
Fnan
Fnan
Fnan
Fnan
Fnan
Fnan
Fnan
Fnan
F4.96085786819458
F4.986710071563721
Fnan
F4.896912574768066
F5.003133296966553
F5.033352375030518
F4.993363380432129
F4.972790718078613
F4.442994594573975
F4.093761920928955
F4.06496524810791
F3.916145086288452
F3.64099383354187
F3.884566307067871
F3.421133041381836
F3.792320966720581
F3.5418384075164795
F3.5151777267456055
F3.3242268562316895
F3.2742319107055664
F3.487851142883301
F3.3660836219787598
F3.2391433715820312
tp12
aa(lp13
F1.5707963267948966
aF1.0
a(lp14
F7.000486457209164
aF2.0096932464481236
aF-0.0011307431302283455
aa(lp15
F0.0028642318556537155
aF-0.0027903920908930345
aF0.7070365106214651
aF0.7071657390853145
aa(F1.8985099792480469
F2.0477030277252197
F2.1719558238983154
F2.202094316482544
F1.989678978919983
F2.277897357940674
F2.534473180770874
F2.6595559120178223
F2.660735845565796
F3.089015007019043
F3.167774200439453
F3.3921051025390625
F3.5861475467681885
F3.7175562381744385
F4.217231750488281
F4.364006042480469
F4.857445240020752
Fnan
Fnan
Fnan
Fnan
Fnan
Fnan
Fnan
Fnan
Fnan
Fnan
F4.072381496429443
F4.203785419464111
F4.192218780517578
Fnan
F3.751979351043701
F3.8097195625305176
Fnan
F3.9823923110961914
F3.969731092453003
F3.8933370113372803
F4.094911575317383
F3.7721190452575684
F3.7472875118255615
F3.755495071411133
F3.843958854675293
F3.888883352279663
F3.235812187194824
F3.114497423171997
F3.1816916465759277
F3.082920789718628
F3.09979510307312
F2.9761440753936768
F2.944391965866089
F2.82184100151062
F2.7053000926971436
F2.9010934829711914
F2.7230265140533447
tp16
aa(lp17
F1.5707963267948966
aF1.0
a(lp18
F6.996260310406666
aF3.010120127587132
aF-0.0011309909503122717
aa(lp19
F0.0028378539454021207
aF-0.002815637916031785
aF0.7069930327652733
aF0.7072092126022341
aa(F1.8982667922973633
F2.0822267532348633
F2.2241125106811523
F2.1908276081085205
F2.2514865398406982
F2.4442648887634277
F2.5930824279785156
F2.676356792449951
F2.7497715950012207
F2.990286350250244
F3.06144118309021
F3.145850658416748
F3.5214388370513916
F3.872375965118408
F4.1043548583984375
F4.422110557556152
F4.903499603271484
Fnan
Fnan
Fnan
Fnan
Fnan
Fnan
Fnan
Fnan
Fnan
Fnan
F3.2393550872802734
F3.087867498397827
F2.9099419116973877
Fnan
F2.8710200786590576
F3.0030674934387207
Fnan
F2.9557063579559326
F2.6806936264038086
F2.8680126667022705
F2.9237091541290283
F3.035522222518921
F2.814014196395874
F2.7539608478546143
F3.0015058517456055
F2.885540008544922
F3.067769765853882
F3.0343854427337646
F2.8978142738342285
F3.1697423458099365
F3.013784170150757
F2.93365740776062
F3.0559070110321045
F2.1335551738739014
F2.141329050064087
F2.2906181812286377
F2.256361722946167
tp20
aa(lp21
F1.5707963267948966
aF1.0
a(lp22
F6.996160610999631
aF4.010128880180209
aF-0.0011309908341820551
aa(lp23
F0.0028453359110039893
aF-0.0028081577196731153
aF0.7070536878346825
aF0.7071485705515853
aa(F1.930777668952942
F2.170102119445801
F2.0813746452331543
F2.2232680320739746
F2.3281021118164062
F2.3362221717834473
F2.590877056121826
F2.6801376342773438
F2.767840623855591
F3.041001558303833
F3.133784055709839
F3.3631231784820557
F3.491400718688965
F3.6698484420776367
F4.144489288330078
F4.10710334777832
F4.233368873596191
F4.0715227127075195
F4.072722911834717
F4.1368231773376465
F4.142349720001221
F4.072362422943115
F4.140132427215576
F4.23947811126709
F4.001468658447266
F4.082907676696777
F4.029946804046631
F2.037693738937378
F2.166318893432617
F2.0039777755737305
Fnan
F1.9815188646316528
F2.040868043899536
Fnan
F1.95541512966156
F2.04673433303833
F2.0057406425476074
F1.932484745979309
F1.9880162477493286
F2.0676088333129883
F2.115232467651367
F2.0729808807373047
F2.001106023788452
F2.023850679397583
F2.0370304584503174
F1.955973744392395
F2.0767574310302734
F1.998542070388794
F1.972413420677185
F1.7849024534225464
F1.979202151298523
F2.178229331970215
F1.9442323446273804
F2.168248414993286
tp24
aa(lp25
F1.5707963267948966
aF1.0
a(lp26
F6.996002431260853
aF5.010142560177528
aF-0.0011307219015634917
aa(lp27
F0.002846376915855024
aF-0.0028082079975262617
aF0.7069782794625611
aF0.7072239563776476
aa(F1.7229721546173096
F2.1569457054138184
F2.3739805221557617
F2.1662652492523193
F2.2825515270233154
F2.6523165702819824
F2.590308427810669
F2.7165966033935547
F2.898407459259033
F2.720402240753174
F3.123002052307129
F3.2516117095947266
F3.187103509902954
F3.2571492195129395
F3.1124866008758545
F3.018035411834717
F3.1374671459198
F3.1859962940216064
F3.1631057262420654
F3.1031060218811035
F3.062922477722168
F3.148756504058838
F3.1064350605010986
F2.949193000793457
F2.9053266048431396
F3.026010036468506
F2.925565004348755
F0.9059319496154785
F1.0887794494628906
F1.235443115234375
Fnan
F1.0738258361816406
F1.1091424226760864
Fnan
F1.0431832075119019
F1.056016206741333
F0.8995090126991272
F0.9822736382484436
F1.1042160987854004
F1.0183353424072266
F0.9670768976211548
F0.9802120923995972
F0.9273778796195984
F1.0762423276901245
F0.8912070393562317
F1.1850441694259644
F1.1391942501068115
F1.0693728923797607
F0.8497522473335266
F1.0015954971313477
F1.1164970397949219
F1.1064958572387695
F1.1541820764541626
F1.0703086853027344
tp28
aa(lp29
F0.7853981633974483
aF0.0
a(lp30
F6.995457550149977
aF5.010208061169343
aF-0.0011309911839825493
aa(lp31
F0.0015536680993952746
aF-0.003683445455449074
aF0.382617906519258
aF0.9238980224872407
aa(F1.0260792970657349
F1.0428658723831177
F1.1167024374008179
F1.2244330644607544
F1.3065693378448486
F1.2093971967697144
F1.2129415273666382
F1.0712897777557373
F1.1496466398239136
F1.204289436340332
F1.1223803758621216
F1.2843843698501587
F1.2340108156204224
F1.3460450172424316
F1.0274180173873901
F1.3677924871444702
F1.2986115217208862
F1.071522831916809
F1.1746553182601929
F1.2907975912094116
F1.345706582069397
F1.4456835985183716
F1.3083713054656982
F1.4540817737579346
F1.4145902395248413
F1.4638030529022217
F1.4933555126190186
F1.5776402950286865
F1.446462631225586
F1.6004692316055298
Fnan
F1.652836799621582
F1.7631893157958984
Fnan
F1.9000684022903442
F1.7056955099105835
F2.0118682384490967
F1.9145039319992065
F1.9289742708206177
F2.2207553386688232
F2.300212860107422
F2.279959201812744
F2.3096187114715576
F2.5642335414886475
F2.5632646083831787
F2.6854536533355713
F2.8327534198760986
F2.8529298305511475
F3.0876474380493164
F3.203665018081665
F3.292448043823242
F3.3356354236602783
F3.1549623012542725
F3.242636203765869
tp32
aa(lp33
F0.7853981633974483
aF1.0
a(lp34
F7.702429156184314
aF5.717472470118581
aF-0.0011312410907885484
aa(lp35
F0.0016203386221855054
aF-0.0036564772231728456
aF0.38218057155061197
aF0.9240790092877953
aa(Fnan
Fnan
Fnan
Fnan
Fnan
Fnan
Fnan
Fnan
Fnan
Fnan
Fnan
Fnan
Fnan
Fnan
Fnan
Fnan
Fnan
Fnan
Fnan
Fnan
F0.4545069932937622
F0.5817545652389526
F0.40456798672676086
F0.5613123774528503
F0.5549638271331787
F0.6245508193969727
F0.5306241512298584
F0.48705247044563293
F0.3277123272418976
F0.4732588231563568
Fnan
F0.5612809062004089
F0.5356455445289612
Fnan
F0.700440526008606
F0.6683682203292847
F0.6514023542404175
F0.7154766917228699
F0.6640297174453735
F0.5277934670448303
F0.6688206195831299
F0.6310812830924988
F0.6673581004142761
F0.742864727973938
F0.8196191787719727
F0.8330207467079163
F0.9784908890724182
F0.8560252785682678
F1.0089598894119263
F1.0834075212478638
F0.9284349679946899
F1.2638670206069946
F1.2065054178237915
F1.347626805305481
tp36
aa(lp37
F1.5707963267948966
aF0.0
a(lp38
F7.702158892306999
aF5.71776267059067
aF-0.0011307400878752538
aa(lp39
F0.0028528644843347313
aF-0.0028019018641971694
aF0.7074763126603741
aF0.7067257442138768
aa(F0.6774253845214844
F0.6032785177230835
F0.6414154767990112
F0.804337739944458
F0.5016257166862488
F0.7811877131462097
F0.7759592533111572
F0.9390023946762085
F0.7449921369552612
F0.7551441788673401
F0.6843618154525757
F1.1085184812545776
F1.0235482454299927
F1.2645944356918335
F1.3604410886764526
F1.3901454210281372
F1.4461300373077393
F1.7057150602340698
F1.9205883741378784
F1.9339662790298462
F2.4427266120910645
F2.2773702144622803
F2.3929030895233154
F2.3349955081939697
F2.2948715686798096
F2.356982469558716
F2.3360891342163086
F2.327343225479126
F2.422607898712158
F2.4621636867523193
Fnan
F2.398010730743408
F2.3797566890716553
Fnan
F2.563504219055176
F2.317020893096924
F2.433600425720215
F2.388000249862671
F2.512115240097046
F2.4004385471343994
F2.421427011489868
F2.4485082626342773
F2.3581643104553223
F2.331892251968384
F2.43232798576355
F2.6353421211242676
F2.5626275539398193
F2.476807117462158
F2.6567423343658447
F2.536296844482422
F2.621779680252075
F2.677936315536499
F2.761533737182617
F2.6523241996765137
tp40
aa(lp41
F1.5707963267948966
aF1.0
a(lp42
F7.701893157089934
aF6.717783222122508
aF-0.0011307592431465396
aa(lp43
F0.0028427044738069313
aF-0.0028120032719519197
aF0.7070322314420002
aF0.7071700187161636
aa(F0.4016214907169342
F0.6850216388702393
F0.7256772518157959
F0.6370388865470886
F0.6655542850494385
F0.8633485436439514
F0.840761125087738
F0.7711132168769836
F0.8535560965538025
F0.7514108419418335
F0.7863958477973938
F0.9560247659683228
F1.1465201377868652
F0.9482052326202393
F1.3335745334625244
F1.1146676540374756
F1.239302396774292
F1.225069522857666
F1.3676817417144775
F1.5996876955032349
F1.3848378658294678
F1.4105513095855713
F1.5040473937988281
F1.1883724927902222
F1.2720098495483398
F1.3423179388046265
F1.2707197666168213
F1.4016653299331665
F1.462278127670288
F1.3958666324615479
Fnan
F1.4287083148956299
F1.4502668380737305
Fnan
F1.3071742057800293
F1.3584197759628296
F1.2766705751419067
F1.3575127124786377
F1.6257050037384033
F1.432950735092163
F1.6120940446853638
F1.3061422109603882
F1.341416358947754
F1.4905202388763428
F1.487196445465088
F1.4933122396469116
F1.5310673713684082
F1.4510465860366821
F1.494141936302185
F1.5584341287612915
F1.4401524066925049
F1.5312951803207397
F1.8052949905395508
F1.5012465715408325
tp44
aa(lp45
F1.5707963267948966
aF1.0
a(lp46
F7.700695056722837
aF7.7179000639510695
aF-0.00113075470447202
aa(lp47
F0.0028479715274992625
aF-0.00280673249206633
aF0.7074743655220648
aF0.7067276939812452
aa(Fnan
Fnan
Fnan
Fnan
Fnan
Fnan
Fnan
Fnan
Fnan
Fnan
Fnan
Fnan
Fnan
Fnan
Fnan
Fnan
Fnan
Fnan
Fnan
Fnan
Fnan
Fnan
Fnan
Fnan
Fnan
Fnan
Fnan
Fnan
Fnan
Fnan
Fnan
Fnan
Fnan
Fnan
Fnan
Fnan
Fnan
Fnan
Fnan
Fnan
Fnan
Fnan
Fnan
Fnan
Fnan
Fnan
Fnan
Fnan
Fnan
Fnan
Fnan
Fnan
Fnan
Fnan
tp48
aa(lp49
F-3.141592653589793
aF0.0
a(lp50
F7.699639379813191
aF7.71797398829623
aF-0.001130990618390365
aa(lp51
F-0.003997624136885323
aF-2.5954154206565295e-05
aF-0.9999920065189923
aF-7.228942998340537e-05
aa(F0.6333375573158264
F0.5634686946868896
F0.473244845867157
F0.5064629316329956
F0.8331233263015747
F0.809638500213623
F0.7666720151901245
F0.8041473627090454
F0.6988539695739746
F0.7277538776397705
F0.9426019787788391
F1.0458816289901733
F0.9411916732788086
F1.1085667610168457
F1.0299499034881592
F1.274330735206604
F1.4514321088790894
F1.437764286994934
F1.6595149040222168
F1.912731409072876
F2.184080123901367
F2.4734280109405518
F3.1943325996398926
F3.737905263900757
Fnan
Fnan
Fnan
Fnan
Fnan
Fnan
Fnan
Fnan
Fnan
Fnan
Fnan
Fnan
Fnan
F3.638674736022949
F3.6463980674743652
F3.6484463214874268
F3.408991575241089
F3.3077614307403564
F3.312807559967041
F3.1773838996887207
F3.2331273555755615
F2.9386489391326904
F2.9660487174987793
F2.9065773487091064
F2.6886212825775146
F2.6729066371917725
F2.572852611541748
F2.693925619125366
F2.582132339477539
F2.44516921043396
tp52
aa(lp53
F-3.141592653589793
aF1.0
a(lp54
F6.699615941879026
aF7.7177478508189985
aF-0.0011307503660597518
aa(lp55
F-0.003998513504548769
aF-2.854680181945869e-05
aF-0.9999920033447623
aF-6.573707490804279e-05
aa(F0.4130306839942932
F0.6521478295326233
F0.6851231455802917
F0.6801320314407349
F0.7627273201942444
F0.5852483510971069
F0.7484010457992554
F0.6360556483268738
F0.8319646120071411
F0.9425867199897766
F0.9689288139343262
F0.9964362978935242
F1.035197138786316
F1.1218715906143188
F1.097320556640625
F1.3700894117355347
F1.0487325191497803
F1.4937033653259277
F1.4410353899002075
F1.7902743816375732
F2.3497276306152344
F2.5040574073791504
F3.076857089996338
F4.081298351287842
Fnan
Fnan
Fnan
Fnan
Fnan
Fnan
Fnan
Fnan
Fnan
Fnan
Fnan
Fnan
Fnan
Fnan
Fnan
Fnan
F2.9223971366882324
F2.6871652603149414
F2.661768674850464
F2.7466483116149902
F2.5240728855133057
F2.4431049823760986
F2.5915558338165283
F2.429521083831787
F2.3809118270874023
F2.288362503051758
F2.049633264541626
F2.2758240699768066
F2.2213737964630127
F2.1190929412841797
tp56
aa(lp57
F-3.141592653589793
aF1.0
a(lp58
F5.6996060573519225
aF7.717645978182484
aF-0.0011307439522525997
aa(lp59
F-0.003998503972283158
aF-1.3488007028378245e-06
aF-0.9999920024525739
aF-8.363644907934467e-05
aa(F0.7108834981918335
F0.4644315540790558
F0.579201340675354
F0.6085720062255859
F0.6378039121627808
F0.6203638911247253
F0.687889814376831
F0.7355320453643799
F0.6443796753883362
F0.7134488821029663
F0.7169429063796997
F0.775533139705658
F0.8805197477340698
F1.0444121360778809
F1.2863259315490723
F1.2877004146575928
F1.228724718093872
F1.538201093673706
F1.7114167213439941
F2.0160396099090576
F2.2842893600463867
F2.43473219871521
F3.097039222717285
F3.9121317863464355
Fnan
Fnan
Fnan
Fnan
Fnan
Fnan
Fnan
Fnan
Fnan
Fnan
Fnan
Fnan
Fnan
Fnan
Fnan
Fnan
Fnan
Fnan
F4.735411643981934
F3.4580657482147217
F2.672004222869873
F2.291003465652466
F1.8057785034179688
F2.0285778045654297
F1.807389259338379
F1.9058083295822144
F1.7839053869247437
F1.9984230995178223
F1.5746005773544312
F1.7732833623886108
tp60
aa(lp61
F-3.141592653589793
aF1.0
a(lp62
F4.6995974642593605
aF7.717529717468061
aF-0.0011307464033078196
aa(lp63
F-0.003998510771161444
aF-2.4316013670008236e-05
aF-0.9999919903612513
aF-0.00017473891273495995
aa(F0.6812968254089355
F0.6233669519424438
F0.7085931301116943
F0.6560473442077637
F0.6637550592422485
F0.482649564743042
F0.6779510378837585
F0.8245826959609985
F0.5886713862419128
F0.9155582785606384
F0.8551490306854248
F0.9547130465507507
F0.8980660438537598
F1.0059032440185547
F1.2504031658172607
F1.2962580919265747
F1.2136820554733276
F1.5463387966156006
F1.603718876838684
F1.7897166013717651
F2.287891149520874
F2.7216315269470215
F3.0882513523101807
F3.7783491611480713
Fnan
Fnan
Fnan
Fnan
Fnan
Fnan
Fnan
Fnan
Fnan
Fnan
Fnan
Fnan
Fnan
Fnan
Fnan
Fnan
Fnan
Fnan
Fnan
Fnan
F5.067288398742676
F4.223511219024658
F3.6592037677764893
F3.4154016971588135
F2.852520227432251
F2.6694374084472656
F2.284001588821411
F2.239875078201294
F1.9865821599960327
F1.8390034437179565
tp64
aa(lp65
F-3.141592653589793
aF1.0
a(lp66
F3.6995917758875834
aF7.71745816517918
aF-0.0011307677088673862
aa(lp67
F-0.003998518151775652
aF-5.631408126168833e-05
aF-0.999991990095564
aF-0.0001686002002251483
aa(F0.6603867411613464
F0.5836033225059509
F0.5421199202537537
F0.596745491027832
F0.5178539752960205
F0.737224280834198
F0.7694396376609802
F0.7156052589416504
F0.803770899772644
F0.8451191782951355
F0.803601861000061
F1.0933051109313965
F0.8633106350898743
F1.1022862195968628
F1.2847853899002075
F1.2265615463256836
F1.352333664894104
F1.480434536933899
F1.6870216131210327
F1.819893479347229
F2.263317108154297
F2.5413341522216797
F3.231412887573242
F4.005573749542236
Fnan
Fnan
Fnan
Fnan
Fnan
Fnan
Fnan
Fnan
Fnan
Fnan
Fnan
Fnan
Fnan
Fnan
Fnan
Fnan
Fnan
Fnan
Fnan
Fnan
F5.127924919128418
F4.711112976074219
F4.648921012878418
F4.401095867156982
F4.31804895401001
F3.7689459323883057
F3.571223020553589
F3.0985665321350098
F2.8188319206237793
F2.7320430278778076
tp68
aa(lp69
F-3.141592653589793
aF0.0
a(lp70
F3.6995674508906213
aF7.71719172532422
aF-0.0011309904146865613
aa(lp71
F-0.003997642842243517
aF-2.0261829588611624e-05
aF-0.9999915716985657
aF-0.0009353999125998866
aa(F0.6641636490821838
F0.6047880053520203
F0.5378164052963257
F0.658073902130127
F0.6421056985855103
F0.6739802360534668
F0.761691689491272
F0.7743315100669861
F0.887678861618042
F0.7906017899513245
F0.8879883885383606
F0.8909546732902527
F1.0908427238464355
F0.8984079360961914
F1.0292737483978271
F1.3332358598709106
F1.4331637620925903
F1.4443719387054443
F1.4862523078918457
F1.8793678283691406
F1.995705485343933
F2.423886299133301
F3.178666114807129
F3.841188430786133
Fnan
Fnan
Fnan
Fnan
Fnan
Fnan
Fnan
Fnan
Fnan
Fnan
Fnan
Fnan
Fnan
Fnan
Fnan
Fnan
Fnan
Fnan
Fnan
Fnan
F5.036183834075928
F4.79769229888916
F4.65016508102417
F4.582982540130615
F4.2904133796691895
F3.7255353927612305
F3.6684975624084473
F3.276310443878174
F3.044361114501953
F2.6888959407806396
tp72
aa.