(lp0
(lp1
ccopy_reg
_reconstructor
p2
(cstd_msgs.msg._Float32
Float32
p3
c__builtin__
object
p4
Ntp5
Rp6
(lp7
F-2.356194490192345
abag2
(g3
g4
Ntp8
Rp9
(lp10
F0.0
abag2
(cturtlebot_ctrl.srv._TurtleBotControl
TurtleBotControlResponse
p11
g4
Ntp12
Rp13
(lp14
g2
(cgazebo_msgs.msg._ModelState
ModelState
p15
g4
Ntp16
Rp17
(lp18
S'mobile_base'
p19
ag2
(cgeometry_msgs.msg._Pose
Pose
p20
g4
Ntp21
Rp22
(lp23
g2
(cgeometry_msgs.msg._Point
Point
p24
g4
Ntp25
Rp26
(lp27
F6.000008806319803
aF1.003107839420481
aF-0.0011307406851468194
abag2
(cgeometry_msgs.msg._Quaternion
Quaternion
p28
g4
Ntp29
Rp30
(lp31
F-0.003681388912100446
aF-0.0015610498256131535
aF-0.9239420605978416
aF0.3825115412080193
ababag2
(cgeometry_msgs.msg._Twist
Twist
p32
g4
Ntp33
Rp34
(lp35
g2
(cgeometry_msgs.msg._Vector3
Vector3
p36
g4
Ntp37
Rp38
(lp39
F0.0001514311653136769
aF-0.00017160039710489055
aF1.2308458294101838e-05
abag2
(g36
g4
Ntp40
Rp41
(lp42
F-0.00024599526703313556
aF-0.00022199421872423538
aF-0.00044963464878169295
ababaS''
p43
abag2
(g3
g4
Ntp44
Rp45
(lp46
F-2.407214641571045
abag2
(g3
g4
Ntp47
Rp48
(lp49
F-0.05367331579327583
abag2
(cturtlebot_ctrl.msg._TurtleBotScan
TurtleBotScan
p50
g4
Ntp51
Rp52
(lp53
(F5.145951747894287
F5.041952133178711
F5.2293572425842285
F5.357382297515869
F5.306525230407715
F5.367773056030273
Fnan
Fnan
Fnan
Fnan
Fnan
Fnan
Fnan
Fnan
Fnan
Fnan
Fnan
Fnan
Fnan
Fnan
Fnan
Fnan
Fnan
Fnan
Fnan
Fnan
Fnan
Fnan
Fnan
Fnan
Fnan
Fnan
Fnan
Fnan
Fnan
F4.855079650878906
F4.8421406745910645
F4.928022384643555
F4.857284069061279
F4.923755645751953
F4.615825653076172
F4.801849365234375
F4.576388359069824
F4.622752666473389
F4.595677852630615
F5.059327125549316
F5.32838773727417
Fnan
Fnan
Fnan
Fnan
Fnan
Fnan
Fnan
tp54
ababaa(lp55
g2
(g3
g4
Ntp56
Rp57
(lp58
F-2.356194490192345
abag2
(g3
g4
Ntp59
Rp60
(lp61
F1.0
abag2
(g11
g4
Ntp62
Rp63
(lp64
g2
(g15
g4
Ntp65
Rp66
(lp67
S'mobile_base'
p68
ag2
(g20
g4
Ntp69
Rp70
(lp71
g2
(g24
g4
Ntp72
Rp73
(lp74
F5.292943584894826
aF0.29595072094416647
aF-0.0011307408077850245
abag2
(g28
g4
Ntp75
Rp76
(lp77
F-0.00367435430877861
aF-0.0015777106999467975
aF-0.923901864312719
aF0.38260861865468115
ababag2
(g32
g4
Ntp78
Rp79
(lp80
g2
(g36
g4
Ntp81
Rp82
(lp83
F-0.00018770551744057718
aF0.00014985635730537541
aF-4.209238157433923e-06
abag2
(g36
g4
Ntp84
Rp85
(lp86
F0.0019946390195189584
aF0.0021445861829612885
aF0.00021400362209733335
ababag43
abag2
(g3
g4
Ntp87
Rp88
(lp89
F-2.2710962295532227
abag2
(g3
g4
Ntp90
Rp91
(lp92
F1.0107431411743164
abag2
(g50
g4
Ntp93
Rp94
(lp95
(F4.5659284591674805
F4.332716464996338
F4.795220851898193
F4.804620742797852
F5.006115436553955
F4.892519474029541
F5.057158946990967
F4.951615810394287
F4.990927696228027
F5.454916000366211
Fnan
Fnan
Fnan
Fnan
Fnan
Fnan
Fnan
Fnan
Fnan
Fnan
Fnan
Fnan
Fnan
Fnan
Fnan
Fnan
Fnan
F4.574981212615967
F4.635251045227051
F4.395130634307861
Fnan
F4.365170955657959
F4.454482078552246
Fnan
F4.207306385040283
F3.9621758460998535
F4.1559157371521
F4.094653129577637
F3.87485408782959
F3.8638784885406494
F3.9010441303253174
F3.689945697784424
F3.834472179412842
F3.7564470767974854
F3.764822483062744
F3.763212203979492
F3.774433135986328
F3.5909926891326904
F3.840576648712158
F4.06756591796875
F4.2989821434021
F4.55328369140625
F4.763646602630615
F5.275065898895264
tp96
ababaa(lp97
g2
(g3
g4
Ntp98
Rp99
(lp100
F-1.5707963267948966
abag2
(g3
g4
Ntp101
Rp102
(lp103
F0.0
abag2
(g11
g4
Ntp104
Rp105
(lp106
g2
(g15
g4
Ntp107
Rp108
(lp109
S'mobile_base'
p110
ag2
(g20
g4
Ntp111
Rp112
(lp113
g2
(g24
g4
Ntp114
Rp115
(lp116
F5.293281551257126
aF0.29556558368442987
aF-0.0011309908471305863
abag2
(g28
g4
Ntp117
Rp118
(lp119
F-0.0028081228403429017
aF-0.0028453750192172595
aF-0.7072288008597097
aF0.7069734376351426
ababag2
(g32
g4
Ntp120
Rp121
(lp122
g2
(g36
g4
Ntp123
Rp124
(lp125
F7.663025837048529e-05
aF8.310209461803503e-06
aF-1.3713079688576712e-05
abag2
(g36
g4
Ntp126
Rp127
(lp128
F0.00017871820811226136
aF0.000551309056793374
aF-0.00023807212668529917
ababag43
abag2
(g3
g4
Ntp129
Rp130
(lp131
F-1.4862489700317383
abag2
(g3
g4
Ntp132
Rp133
(lp134
F0.02332964912056923
abag2
(g50
g4
Ntp135
Rp136
(lp137
(F3.887204170227051
F3.7618486881256104
F3.7735538482666016
F3.81665301322937
F3.5740902423858643
F3.797389030456543
F3.669290781021118
F3.566652774810791
F3.588822603225708
F3.7869160175323486
F4.05051326751709
F4.2133331298828125
F4.438014984130859
F5.042222023010254
Fnan
Fnan
Fnan
Fnan
Fnan
Fnan
Fnan
Fnan
Fnan
Fnan
Fnan
Fnan
Fnan
Fnan
Fnan
Fnan
Fnan
Fnan
Fnan
Fnan
F4.877339839935303
F4.368602275848389
F3.854417085647583
F3.4347846508026123
F3.286559820175171
F2.939368963241577
F2.7711851596832275
F2.695009469985962
F2.444042444229126
F2.141308069229126
F2.055715560913086
F1.9534704685211182
F1.7936360836029053
F1.9039233922958374
F1.7294037342071533
F1.6998095512390137
F1.6216844320297241
F1.4718981981277466
F1.5555607080459595
F1.496677041053772
tp138
ababaa(lp139
g2
(g3
g4
Ntp140
Rp141
(lp142
F-1.5707963267948966
abag2
(g3
g4
Ntp143
Rp144
(lp145
F1.0
abag2
(g11
g4
Ntp146
Rp147
(lp148
g2
(g15
g4
Ntp149
Rp150
(lp151
S'mobile_base'
p152
ag2
(g20
g4
Ntp153
Rp154
(lp155
g2
(g24
g4
Ntp156
Rp157
(lp158
F5.293410652779153
aF-0.704448124110532
aF-0.0011307404052077752
abag2
(g28
g4
Ntp159
Rp160
(lp161
F-0.0028046278172981515
aF-0.002850138029072037
aF-0.7067229326849094
aF0.7074791213832835
ababag2
(g32
g4
Ntp162
Rp163
(lp164
g2
(g36
g4
Ntp165
Rp166
(lp167
F0.00022488570462990344
aF-1.874764937183105e-05
aF1.2393535590504974e-05
abag2
(g36
g4
Ntp168
Rp169
(lp170
F-1.6316854589635613e-05
aF-0.00047971130436696063
aF-0.00044648369059222627
ababag43
abag2
(g3
g4
Ntp171
Rp172
(lp173
F-1.627627968788147
abag2
(g3
g4
Ntp174
Rp175
(lp176
F1.0512001514434814
abag2
(g50
g4
Ntp177
Rp178
(lp179
(F2.6584932804107666
F2.7726752758026123
F2.988368272781372
F2.988267660140991
F3.055657148361206
F3.199195146560669
F3.3217835426330566
F3.567257881164551
F3.5436275005340576
F3.872443199157715
F3.9637038707733154
F4.210006237030029
F4.5685038566589355
F4.979646682739258
Fnan
Fnan
Fnan
Fnan
Fnan
Fnan
Fnan
Fnan
Fnan
Fnan
Fnan
Fnan
Fnan
Fnan
Fnan
Fnan
Fnan
Fnan
Fnan
Fnan
F4.961346626281738
F4.164340972900391
F3.8657777309417725
F3.4902775287628174
F3.0620410442352295
F2.851938486099243
F2.7990238666534424
F2.6392383575439453
F2.39064621925354
F2.3312954902648926
F2.2138442993164062
F2.0603630542755127
F1.8001744747161865
F1.8486449718475342
F1.918236255645752
F1.7769453525543213
F1.5567779541015625
F1.4852029085159302
F1.469260811805725
F1.5645495653152466
tp180
ababaa(lp181
g2
(g3
g4
Ntp182
Rp183
(lp184
F-1.5707963267948966
abag2
(g3
g4
Ntp185
Rp186
(lp187
F1.0
abag2
(g11
g4
Ntp188
Rp189
(lp190
g2
(g15
g4
Ntp191
Rp192
(lp193
S'mobile_base'
p194
ag2
(g20
g4
Ntp195
Rp196
(lp197
g2
(g24
g4
Ntp198
Rp199
(lp200
F5.29346654459099
aF-1.7044539143791075
aF-0.0011307408557627019
abag2
(g28
g4
Ntp201
Rp202
(lp203
F-0.0028188310204994055
aF-0.0028356994371048785
aF-0.7072199302211549
aF0.7069823076275427
ababag2
(g32
g4
Ntp204
Rp205
(lp206
g2
(g36
g4
Ntp207
Rp208
(lp209
F-7.205208686689686e-05
aF-3.422662966796716e-05
aF3.580023045517442e-05
abag2
(g36
g4
Ntp210
Rp211
(lp212
F-0.00015112889078744944
aF0.001991092749853783
aF5.6970159222016714e-05
ababag43
abag2
(g3
g4
Ntp213
Rp214
(lp215
F-1.4668850898742676
abag2
(g3
g4
Ntp216
Rp217
(lp218
F1.0215809345245361
abag2
(g50
g4
Ntp219
Rp220
(lp221
(F2.500746250152588
F2.71952486038208
F2.7906014919281006
F2.832582950592041
F3.052675724029541
F3.168214797973633
F3.2859394550323486
F3.4504826068878174
F3.7136402130126953
F3.7912254333496094
F3.9556596279144287
F4.234105587005615
F4.625722408294678
Fnan
Fnan
Fnan
Fnan
Fnan
Fnan
Fnan
Fnan
Fnan
Fnan
Fnan
Fnan
Fnan
Fnan
Fnan
Fnan
Fnan
Fnan
Fnan
Fnan
Fnan
Fnan
F4.362780570983887
F3.9859564304351807
F3.544511079788208
F3.1014556884765625
F2.805176019668579
F2.861427068710327
F2.6325571537017822
F2.160801887512207
F2.287376880645752
F1.945743441581726
F2.072115659713745
F1.849021315574646
F1.8529566526412964
F1.7368199825286865
F1.7147319316864014
F1.748403787612915
F1.582517147064209
F1.3897141218185425
F1.4354236125946045
tp222
ababaa(lp223
g2
(g3
g4
Ntp224
Rp225
(lp226
F-1.5707963267948966
abag2
(g3
g4
Ntp227
Rp228
(lp229
F1.0
abag2
(g11
g4
Ntp230
Rp231
(lp232
g2
(g15
g4
Ntp233
Rp234
(lp235
S'mobile_base'
p236
ag2
(g20
g4
Ntp237
Rp238
(lp239
g2
(g24
g4
Ntp240
Rp241
(lp242
F5.293580375544406
aF-2.7044639596102744
aF-0.0011307622432895903
abag2
(g28
g4
Ntp243
Rp244
(lp245
F-0.0028091755296060245
aF-0.002845513591750488
aF-0.7072324138779975
aF0.7069698185534823
ababag2
(g32
g4
Ntp246
Rp247
(lp248
g2
(g36
g4
Ntp249
Rp250
(lp251
F0.00018714945604647072
aF-2.1127475729691354e-05
aF7.2108540701864365e-06
abag2
(g36
g4
Ntp252
Rp253
(lp254
F-2.4951129590639766e-05
aF-0.00026130009872983345
aF-0.0003563991002351386
ababag43
abag2
(g3
g4
Ntp255
Rp256
(lp257
F-1.579668641090393
abag2
(g3
g4
Ntp258
Rp259
(lp260
F1.0158584117889404
abag2
(g50
g4
Ntp261
Rp262
(lp263
(F2.7543892860412598
F2.5933690071105957
F2.7078471183776855
F2.8799033164978027
F3.1532247066497803
F3.1549265384674072
F3.385486125946045
F3.4363222122192383
F3.736345052719116
Fnan
Fnan
Fnan
Fnan
Fnan
Fnan
Fnan
Fnan
Fnan
Fnan
Fnan
Fnan
Fnan
Fnan
Fnan
Fnan
Fnan
Fnan
Fnan
Fnan
Fnan
Fnan
Fnan
Fnan
Fnan
Fnan
Fnan
Fnan
Fnan
F3.231388807296753
F2.941044569015503
F2.8311338424682617
F2.4881162643432617
F2.4477572441101074
F2.2480809688568115
F1.927191138267517
F1.8299334049224854
F1.9247024059295654
F1.997862458229065
F1.763229489326477
F1.7272698879241943
F1.68809175491333
F1.6160598993301392
F1.5455423593521118
F1.494853138923645
tp264
ababaa(lp265
g2
(g3
g4
Ntp266
Rp267
(lp268
F-1.5707963267948966
abag2
(g3
g4
Ntp269
Rp270
(lp271
F1.0
abag2
(g11
g4
Ntp272
Rp273
(lp274
g2
(g15
g4
Ntp275
Rp276
(lp277
S'mobile_base'
p278
ag2
(g20
g4
Ntp279
Rp280
(lp281
g2
(g24
g4
Ntp282
Rp283
(lp284
F5.293654793295737
aF-3.7044722949487614
aF-0.0011307413733761817
abag2
(g28
g4
Ntp285
Rp286
(lp287
F-0.0028234955252291606
aF-0.002831243905426947
aF-0.7071577603639386
aF0.7070444921559218
ababag2
(g32
g4
Ntp288
Rp289
(lp290
g2
(g36
g4
Ntp291
Rp292
(lp293
F0.0006456232739470741
aF-1.12273395342937e-05
aF1.1748862093859038e-05
abag2
(g36
g4
Ntp294
Rp295
(lp296
F-2.051754481295855e-05
aF-0.003464753860088621
aF-0.0008545935880111485
ababag43
abag2
(g3
g4
Ntp297
Rp298
(lp299
F-1.5049375295639038
abag2
(g3
g4
Ntp300
Rp301
(lp302
F0.9917200207710266
abag2
(g50
g4
Ntp303
Rp304
(lp305
(F2.697072982788086
F2.6765122413635254
Fnan
Fnan
Fnan
Fnan
Fnan
Fnan
Fnan
Fnan
Fnan
Fnan
Fnan
Fnan
Fnan
Fnan
Fnan
Fnan
Fnan
Fnan
Fnan
Fnan
Fnan
Fnan
Fnan
Fnan
Fnan
Fnan
Fnan
Fnan
Fnan
Fnan
Fnan
Fnan
Fnan
Fnan
Fnan
Fnan
Fnan
Fnan
Fnan
Fnan
F2.3258702754974365
F2.058598279953003
F2.1497652530670166
F2.055943489074707
F1.7536569833755493
F1.6967395544052124
F1.582305669784546
F1.7163547277450562
F1.6021188497543335
F1.5452336072921753
F1.5328317880630493
F1.2613153457641602
tp306
ababaa(lp307
g2
(g3
g4
Ntp308
Rp309
(lp310
F-1.5707963267948966
abag2
(g3
g4
Ntp311
Rp312
(lp313
F1.0
abag2
(g11
g4
Ntp314
Rp315
(lp316
g2
(g15
g4
Ntp317
Rp318
(lp319
S'mobile_base'
p320
ag2
(g20
g4
Ntp321
Rp322
(lp323
g2
(g24
g4
Ntp324
Rp325
(lp326
F5.2937484542308475
aF-4.704482249501367
aF-0.0011307183454337122
abag2
(g28
g4
Ntp327
Rp328
(lp329
F-0.00280799015345865
aF-0.002846567981617713
aF-0.7067154189122625
aF0.7074866280811881
ababag2
(g32
g4
Ntp330
Rp331
(lp332
g2
(g36
g4
Ntp333
Rp334
(lp335
F0.00012359600139897042
aF-4.189419057807114e-05
aF3.7891491745386585e-05
abag2
(g36
g4
Ntp336
Rp337
(lp338
F-0.00015904786962327248
aF0.000275951683878378
aF-0.0002597493233126783
ababag43
abag2
(g3
g4
Ntp339
Rp340
(lp341
F-1.5838874578475952
abag2
(g3
g4
Ntp342
Rp343
(lp344
F0.9154735803604126
abag2
(g50
g4
Ntp345
Rp346
(lp347
(F5.166561126708984
F4.9080424308776855
F4.962140083312988
F4.883646488189697
F4.736356735229492
F4.748513221740723
F4.6699042320251465
F4.891064167022705
F4.763363361358643
F4.6667327880859375
F4.736035346984863
F4.7785797119140625
F4.749300003051758
F4.854931831359863
F4.5046162605285645
F4.447734355926514
F4.618685722351074
F4.417964458465576
F4.515537738800049
F4.36607027053833
F4.591557025909424
F4.300120830535889
F4.468306064605713
F4.436986923217773
F4.373244285583496
F4.421973705291748
F4.340256690979004
F4.573136806488037
F4.391681671142578
F4.552095413208008
Fnan
F4.3832268714904785
F4.466463088989258
Fnan
F4.441012382507324
F4.396693706512451
F4.541546821594238
F4.380587100982666
F4.595970153808594
F4.577178478240967
F4.46165657043457
F4.744877815246582
F4.678964138031006
F4.559447288513184
F4.609658241271973
F4.878475189208984
F4.876833915710449
F4.894573211669922
F4.872184753417969
F5.011693477630615
F4.8751983642578125
F1.5476471185684204
F1.4782698154449463
F1.5284063816070557
tp348
ababaa(lp349
g2
(g3
g4
Ntp350
Rp351
(lp352
F-1.5707963267948966
abag2
(g3
g4
Ntp353
Rp354
(lp355
F1.0
abag2
(g11
g4
Ntp356
Rp357
(lp358
g2
(g15
g4
Ntp359
Rp360
(lp361
S'mobile_base'
p362
ag2
(g20
g4
Ntp363
Rp364
(lp365
g2
(g24
g4
Ntp366
Rp367
(lp368
F5.293818048753136
aF-5.7044889398471605
aF-0.0011307135254918776
abag2
(g28
g4
Ntp369
Rp370
(lp371
F-0.0028090407182081276
aF-0.0028455509722097976
aF-0.707038914516802
aF0.707163337206342
ababag2
(g32
g4
Ntp372
Rp373
(lp374
g2
(g36
g4
Ntp375
Rp376
(lp377
F0.0001331227776050969
aF-3.9409739990839805e-05
aF3.8334030747567655e-05
abag2
(g36
g4
Ntp378
Rp379
(lp380
F-0.00016100956385844796
aF0.0001793587231274555
aF-0.0002529608629354293
ababag43
abag2
(g3
g4
Ntp381
Rp382
(lp383
F-1.6188812255859375
abag2
(g3
g4
Ntp384
Rp385
(lp386
F0.8828637003898621
abag2
(g50
g4
Ntp387
Rp388
(lp389
(F4.0200324058532715
F3.8358705043792725
F3.6732547283172607
F3.5490810871124268
F3.6229805946350098
F3.8448429107666016
F3.5764596462249756
F3.606090545654297
F3.7116963863372803
F3.7082769870758057
F3.521477222442627
F3.559844493865967
F3.4212305545806885
F3.501952886581421
F3.538837194442749
F3.3793272972106934
F3.4813716411590576
F3.4557485580444336
F3.4792842864990234
F3.4154694080352783
F3.5323023796081543
F3.405998706817627
F3.511871576309204
F3.333688735961914
F3.1442668437957764
F3.1565210819244385
F3.3583145141601562
F3.45600962638855
F3.334596633911133
F3.2879159450531006
Fnan
F3.3340749740600586
F3.3561155796051025
Fnan
F3.632405996322632
F3.3610281944274902
F3.460942268371582
F3.5704355239868164
F3.511416435241699
F3.492325782775879
F3.6190640926361084
F3.4866232872009277
F3.4121506214141846
F3.730923891067505
F3.5287411212921143
F3.626034736633301
F3.7350707054138184
F3.7536613941192627
F3.646740198135376
F3.7755143642425537
F3.7699851989746094
F3.7378835678100586
F3.858577013015747
F3.8294713497161865
tp390
ababaa(lp391
g2
(g3
g4
Ntp392
Rp393
(lp394
F-1.5707963267948966
abag2
(g3
g4
Ntp395
Rp396
(lp397
F1.0
abag2
(g11
g4
Ntp398
Rp399
(lp400
g2
(g15
g4
Ntp401
Rp402
(lp403
S'mobile_base'
p404
ag2
(g20
g4
Ntp405
Rp406
(lp407
g2
(g24
g4
Ntp408
Rp409
(lp410
F5.293866682431042
aF-6.704494567151893
aF-0.0011307407752554621
abag2
(g28
g4
Ntp411
Rp412
(lp413
F-0.002823690416939741
aF-0.0028310508729944882
aF-0.7072083331991089
aF0.7069939075954772
ababag2
(g32
g4
Ntp414
Rp415
(lp416
g2
(g36
g4
Ntp417
Rp418
(lp419
F0.0006470461146561589
aF-9.011541361472922e-06
aF1.1750886622768523e-05
abag2
(g36
g4
Ntp420
Rp421
(lp422
F-2.1044413128205084e-05
aF-0.0034736801989857825
aF-0.0008216392328411427
ababag43
abag2
(g3
g4
Ntp423
Rp424
(lp425
F-1.470451831817627
abag2
(g3
g4
Ntp426
Rp427
(lp428
F1.0144890546798706
abag2
(g50
g4
Ntp429
Rp430
(lp431
(F2.527259111404419
F2.8709022998809814
F2.740138053894043
F2.5362489223480225
F2.6678061485290527
F2.4287428855895996
F2.5158891677856445
F2.444485664367676
F2.7141759395599365
F2.4905295372009277
F2.5999557971954346
F2.5402374267578125
F2.619640588760376
F2.3888566493988037
F2.3088128566741943
F2.33663272857666
F2.5501348972320557
F2.4774138927459717
F2.305438756942749
F2.354839563369751
F2.438966989517212
F2.2931344509124756
F2.531425952911377
F2.2819018363952637
F2.403616189956665
F2.5060572624206543
F2.2296831607818604
F2.3822927474975586
F2.400353193283081
F2.305344343185425
Fnan
F2.378091335296631
F2.4432315826416016
Fnan
F2.3986892700195312
F2.4306674003601074
F2.521451950073242
F2.5988495349884033
F2.3268837928771973
F2.44793438911438
F2.3963637351989746
F2.4343881607055664
F2.498387098312378
F2.411090850830078
F2.4501805305480957
F2.3161449432373047
F2.4765515327453613
F2.73628306388855
F2.612149477005005
F2.731952428817749
F2.6848645210266113
F2.7722384929656982
F2.986278772354126
F2.78965425491333
tp432
ababaa(lp433
g2
(g3
g4
Ntp434
Rp435
(lp436
F-1.5707963267948966
abag2
(g3
g4
Ntp437
Rp438
(lp439
F1.0
abag2
(g11
g4
Ntp440
Rp441
(lp442
g2
(g15
g4
Ntp443
Rp444
(lp445
S'mobile_base'
p446
ag2
(g20
g4
Ntp447
Rp448
(lp449
g2
(g24
g4
Ntp450
Rp451
(lp452
F5.294023223857396
aF-7.7045089778193745
aF-0.0011307599820284397
abag2
(g28
g4
Ntp453
Rp454
(lp455
F-0.0028124333620241078
aF-0.0028422837408619
aF-0.7077664673100057
aF0.706435162908271
ababag2
(g32
g4
Ntp456
Rp457
(lp458
g2
(g36
g4
Ntp459
Rp460
(lp461
F0.00035102043535550963
aF-1.7343520366446127e-05
aF7.3108802862365725e-06
abag2
(g36
g4
Ntp462
Rp463
(lp464
F-2.7074262466432017e-05
aF-0.001105907282401758
aF-0.0005257354423778188
ababag43
abag2
(g3
g4
Ntp465
Rp466
(lp467
F-1.5098249912261963
abag2
(g3
g4
Ntp468
Rp469
(lp470
F0.9711892604827881
abag2
(g50
g4
Ntp471
Rp472
(lp473
(F1.563779354095459
F1.6689319610595703
F1.768440842628479
F1.5723313093185425
F1.499931812286377
F1.2184937000274658
F1.493557333946228
F1.478053092956543
F1.3832712173461914
F1.4631315469741821
F1.376519799232483
F1.4072316884994507
F1.3734427690505981
F1.5746711492538452
F1.4668772220611572
F1.4702621698379517
F1.4243348836898804
F1.5608186721801758
F1.4125789403915405
F1.336526870727539
F1.3988229036331177
F1.3445922136306763
F1.4271708726882935
F1.3714897632598877
F1.3748893737792969
F1.3424452543258667
F1.4712222814559937
F1.2895694971084595
F1.3380645513534546
F1.3297315835952759
Fnan
F1.5417840480804443
F1.2571207284927368
Fnan
F1.3100287914276123
F1.374126672744751
F1.431954026222229
F1.4208186864852905
F1.2797945737838745
F1.298905611038208
F1.217572808265686
F1.4458105564117432
F1.5204535722732544
F1.379509449005127
F1.6422274112701416
F1.4088910818099976
F1.5306215286254883
F1.4647785425186157
F1.4111557006835938
F1.4479482173919678
F1.6372178792953491
F1.5416946411132812
F1.50326669216156
F1.7303848266601562
tp474
ababaa(lp475
g2
(g3
g4
Ntp476
Rp477
(lp478
I0
abag2
(g3
g4
Ntp479
Rp480
(lp481
F0.0
abag2
(g11
g4
Ntp482
Rp483
(lp484
g2
(g15
g4
Ntp485
Rp486
(lp487
S'mobile_base'
p488
ag2
(g20
g4
Ntp489
Rp490
(lp491
g2
(g24
g4
Ntp492
Rp493
(lp494
F5.294532181599456
aF-7.704526735965162
aF-0.0011307664102868653
abag2
(g28
g4
Ntp495
Rp496
(lp497
F5.788968195671204e-05
aF-0.003998479340263103
aF0.000507618367601536
aF0.9999918755346682
ababag2
(g32
g4
Ntp498
Rp499
(lp500
g2
(g36
g4
Ntp501
Rp502
(lp503
F1.307374470254132e-05
aF-0.00022367105325309854
aF7.742176657452602e-06
abag2
(g36
g4
Ntp504
Rp505
(lp506
F-0.0030103758922600966
aF-2.517383291083689e-05
aF7.37051775698604e-05
ababag43
abag2
(g3
g4
Ntp507
Rp508
(lp509
F0.1455150842666626
abag2
(g3
g4
Ntp510
Rp511
(lp512
F-0.08594001829624176
abag2
(g50
g4
Ntp513
Rp514
(lp515
(F2.6180193424224854
F2.744940996170044
F2.664484977722168
F2.8985157012939453
F3.1142585277557373
F3.1621248722076416
F3.3266284465789795
F3.3322057723999023
F3.7428019046783447
F3.729192018508911
F4.071931838989258
F4.213034629821777
F4.539120674133301
F4.887392520904541
F4.937283992767334
F4.761528491973877
F4.819035053253174
F4.8637518882751465
F5.093513488769531
F4.7935309410095215
F4.875009059906006
F4.786201000213623
F4.727786064147949
F4.885345935821533
F4.858929634094238
F4.7621636390686035
F4.7248945236206055
F4.769288539886475
F4.7493205070495605
F5.0638322830200195
Fnan
F4.651349067687988
F4.851179599761963
Fnan
F4.804317474365234
F4.763378143310547
F4.767227649688721
F4.8084869384765625
F4.853898048400879
F4.780203819274902
F5.021483898162842
F4.988034248352051
F5.1092963218688965
F5.171097755432129
F5.062949180603027
F5.036488056182861
F1.7534807920455933
F1.8682444095611572
F1.8922964334487915
F2.0699381828308105
F1.780134916305542
F1.8935645818710327
F1.7958647012710571
F1.8805315494537354
tp516
ababaa(lp517
g2
(g3
g4
Ntp518
Rp519
(lp520
I0
abag2
(g3
g4
Ntp521
Rp522
(lp523
F1.0
abag2
(g11
g4
Ntp524
Rp525
(lp526
g2
(g15
g4
Ntp527
Rp528
(lp529
S'mobile_base'
p530
ag2
(g20
g4
Ntp531
Rp532
(lp533
g2
(g24
g4
Ntp534
Rp535
(lp536
F6.294545914921853
aF-7.704389130590544
aF-0.0011309910098501186
abag2
(g28
g4
Ntp537
Rp538
(lp539
F2.1301859760447696e-05
aF-0.003997609390454158
aF0.0005325808579838709
aF0.999991867478442
ababag2
(g32
g4
Ntp540
Rp541
(lp542
g2
(g36
g4
Ntp543
Rp544
(lp545
F-1.3127777627920728e-05
aF0.0005566223101809628
aF-1.3537961411852057e-05
abag2
(g36
g4
Ntp546
Rp547
(lp548
F0.002742605772177558
aF0.00017400190482170282
aF-0.000787363792328899
ababag43
abag2
(g3
g4
Ntp549
Rp550
(lp551
F0.038804326206445694
abag2
(g3
g4
Ntp552
Rp553
(lp554
F0.9633270502090454
abag2
(g50
g4
Ntp555
Rp556
(lp557
(F2.5360612869262695
F2.66443133354187
F2.6301419734954834
F2.9552156925201416
F2.910022735595703
F3.172046184539795
F3.181349277496338
F3.5113492012023926
F3.549137830734253
F3.8050639629364014
F3.896397113800049
F4.116288185119629
F3.987349033355713
F3.8760015964508057
F3.996070384979248
F3.7706234455108643
F3.943519353866577
F3.8355698585510254
F3.7790260314941406
F3.9891631603240967
F3.583177328109741
F3.4585461616516113
F3.643857955932617
F3.7489378452301025
F3.6942601203918457
F3.7767062187194824
F3.8854598999023438
F3.775989055633545
F3.6329078674316406
F3.925846815109253
Fnan
F3.6653919219970703
F3.9405882358551025
Fnan
F3.844834566116333
F3.929298162460327
F3.730804681777954
F3.838998317718506
F3.8271939754486084
F3.799645185470581
F3.9852373600006104
F3.8758950233459473
F3.897826910018921
F4.08048152923584
F3.921712636947632
F4.086282730102539
F4.153106212615967
F4.261268138885498
F4.188208103179932
F4.092402935028076
F3.908352851867676
F4.300926685333252
F4.229334831237793
F4.469410419464111
tp558
ababaa(lp559
g2
(g3
g4
Ntp560
Rp561
(lp562
I0
abag2
(g3
g4
Ntp563
Rp564
(lp565
F1.0
abag2
(g11
g4
Ntp566
Rp567
(lp568
g2
(g15
g4
Ntp569
Rp570
(lp571
S'mobile_base'
p572
ag2
(g20
g4
Ntp573
Rp574
(lp575
g2
(g24
g4
Ntp576
Rp577
(lp578
F7.294551288292689
aF-7.704316905707132
aF-0.0011309907116046902
abag2
(g28
g4
Ntp579
Rp580
(lp581
F2.7642330363133663e-05
aF-0.003997627805517824
aF-0.00019177304530977577
aF0.9999919906833901
ababag2
(g32
g4
Ntp582
Rp583
(lp584
g2
(g36
g4
Ntp585
Rp586
(lp587
F-1.3873846624910185e-05
aF0.00010304299556388652
aF-1.3955534667038754e-05
abag2
(g36
g4
Ntp588
Rp589
(lp590
F-0.0006713120169635424
aF0.00018136311929071067
aF-0.0002400695078967431
ababag43
abag2
(g3
g4
Ntp591
Rp592
(lp593
F-0.041288286447525024
abag2
(g3
g4
Ntp594
Rp595
(lp596
F1.1001489162445068
abag2
(g50
g4
Ntp597
Rp598
(lp599
(F2.6238083839416504
F2.791496515274048
F2.760122776031494
F2.9561080932617188
F2.9854519367218018
F3.0450973510742188
F3.1222546100616455
F2.959056854248047
F3.0975794792175293
F2.979302167892456
F2.9846503734588623
F2.838900327682495
F2.8545615673065186
F2.8095030784606934
F2.8082892894744873
F2.816190242767334
F2.776564836502075
F2.892967939376831
F2.8539390563964844
F2.967653512954712
F2.766150712966919
F2.79962158203125
F2.5732333660125732
F2.707965850830078
F2.939293622970581
F2.7152600288391113
F2.7751035690307617
F2.7325265407562256
F2.9176621437072754
F2.7160840034484863
Fnan
F2.8765344619750977
F2.771538496017456
Fnan
F2.805234909057617
F2.6925277709960938
F2.862842321395874
F2.9207003116607666
F2.9587106704711914
F2.813232421875
F2.8583433628082275
F2.9700422286987305
F3.0437324047088623
F2.936889886856079
F2.8901407718658447
F2.90433931350708
F2.9326484203338623
F3.0269675254821777
F3.2482964992523193
F3.3614726066589355
F3.145240545272827
F3.076301336288452
F3.199707269668579
F3.0655975341796875
tp600
ababaa(lp601
g2
(g3
g4
Ntp602
Rp603
(lp604
I0
abag2
(g3
g4
Ntp605
Rp606
(lp607
F1.0
abag2
(g11
g4
Ntp608
Rp609
(lp610
g2
(g15
g4
Ntp611
Rp612
(lp613
S'mobile_base'
p614
ag2
(g20
g4
Ntp615
Rp616
(lp617
g2
(g24
g4
Ntp618
Rp619
(lp620
F8.294559097314366
aF-7.704225090646508
aF-0.001130758472282667
abag2
(g28
g4
Ntp621
Rp622
(lp623
F1.9728433015840674e-05
aF-0.0039984934509096695
aF-0.0005465688058178957
aF0.9999918564285675
ababag2
(g32
g4
Ntp624
Rp625
(lp626
g2
(g36
g4
Ntp627
Rp628
(lp629
F1.4523929023841317e-05
aF0.00016351446221470859
aF7.34876508765556e-06
abag2
(g36
g4
Ntp630
Rp631
(lp632
F-3.8739458285298595e-05
aF-2.527284840971434e-05
aF-0.00036187920493860353
ababag43
abag2
(g3
g4
Ntp633
Rp634
(lp635
F0.08425533026456833
abag2
(g3
g4
Ntp636
Rp637
(lp638
F0.9741097092628479
abag2
(g50
g4
Ntp639
Rp640
(lp641
(F2.1501541137695312
F2.0353498458862305
F2.094212055206299
F2.0932092666625977
F1.866938591003418
F1.9675624370574951
F1.7510921955108643
F1.9640440940856934
F1.8858708143234253
F1.8910876512527466
F1.9079251289367676
F1.8558201789855957
F1.9005413055419922
F1.9825031757354736
F1.8422141075134277
F1.7637929916381836
F2.0074615478515625
F1.7528331279754639
F1.8980512619018555
F1.7403185367584229
F1.834130883216858
F1.9122540950775146
F1.8537379503250122
F1.7710703611373901
F1.6577608585357666
F1.8919066190719604
F1.813014030456543
F1.729544997215271
F1.672326922416687
F1.728851556777954
Fnan
F1.8967056274414062
F1.849562644958496
Fnan
F1.6746268272399902
F1.6877762079238892
F1.8092195987701416
F1.7158204317092896
F1.7733101844787598
F1.9136122465133667
F1.854322075843811
F1.83665931224823
F1.9418951272964478
F1.757798433303833
F1.911719560623169
F2.0271105766296387
F2.0857558250427246
F1.9848123788833618
F1.9726178646087646
F2.0770318508148193
F2.0590686798095703
F1.9908866882324219
F1.9555606842041016
F1.9906516075134277
tp642
ababaa(lp643
g2
(g3
g4
Ntp644
Rp645
(lp646
F0.7853981633974483
abag2
(g3
g4
Ntp647
Rp648
(lp649
F0.0
abag2
(g11
g4
Ntp650
Rp651
(lp652
g2
(g15
g4
Ntp653
Rp654
(lp655
S'mobile_base'
p656
ag2
(g20
g4
Ntp657
Rp658
(lp659
g2
(g24
g4
Ntp660
Rp661
(lp662
F8.29460748807653
aF-7.703396096937659
aF-0.0011309920365185355
abag2
(g28
g4
Ntp663
Rp664
(lp665
F0.0015707839124774283
aF-0.0036763301057273607
aF0.38316474827995706
aF0.9236713662934515
ababag2
(g32
g4
Ntp666
Rp667
(lp668
g2
(g36
g4
Ntp669
Rp670
(lp671
F-5.811010099024341e-05
aF3.87314221194679e-05
aF-1.3339143209687092e-05
abag2
(g36
g4
Ntp672
Rp673
(lp674
F-0.0005412395587457261
aF-0.00029739809543047823
aF-0.0002838626635347705
ababag43
abag2
(g3
g4
Ntp675
Rp676
(lp677
F0.7643318176269531
abag2
(g3
g4
Ntp678
Rp679
(lp680
F0.05521761626005173
abag2
(g50
g4
Ntp681
Rp682
(lp683
(F1.738802194595337
F1.8273440599441528
F1.9124114513397217
F1.8547337055206299
F1.696114420890808
F2.041705846786499
F1.9286925792694092
F1.9032806158065796
F1.8439527750015259
F2.012728214263916
F1.9881147146224976
F1.9814990758895874
F2.0275449752807617
F2.0775513648986816
F1.9145501852035522
F1.934828519821167
F2.0012943744659424
F2.0477588176727295
F2.1344850063323975
F2.1723055839538574
F2.3139450550079346
F2.2347259521484375
F2.398653745651245
F2.33823823928833
F2.4713058471679688
F2.2738349437713623
F2.5431501865386963
F2.355463981628418
F2.658622980117798
F2.712540864944458
Fnan
F2.8780782222747803
F2.9254205226898193
Fnan
F3.0373620986938477
F3.2096636295318604
F3.1996631622314453
F3.3070120811462402
F3.349499464035034
F3.3859710693359375
F3.619199275970459
F3.692153215408325
F3.8320541381835938
F3.949993371963501
F4.242651462554932
F4.512965679168701
F4.442171096801758
F4.697324752807617
F5.014713287353516
F5.0629963874816895
F4.635796546936035
F4.395878791809082
F3.996166944503784
F3.9961423873901367
tp684
ababaa(lp685
g2
(g3
g4
Ntp686
Rp687
(lp688
F0.7853981633974483
abag2
(g3
g4
Ntp689
Rp690
(lp691
F1.0
abag2
(g11
g4
Ntp692
Rp693
(lp694
g2
(g15
g4
Ntp695
Rp696
(lp697
S'mobile_base'
p698
ag2
(g20
g4
Ntp699
Rp700
(lp701
g2
(g24
g4
Ntp702
Rp703
(lp704
F9.0017035302763
aF-6.996275521903638
aF-0.0011307116518540494
abag2
(g28
g4
Ntp705
Rp706
(lp707
F0.0015536371003135234
aF-0.003684287385493942
aF0.38319481784772413
aF0.9236588893162189
ababag2
(g32
g4
Ntp708
Rp709
(lp710
g2
(g36
g4
Ntp711
Rp712
(lp713
F-6.36966869764169e-05
aF0.0001214015064729389
aF3.8509542859113036e-05
abag2
(g36
g4
Ntp714
Rp715
(lp716
F-5.080226312807642e-05
aF-0.0002788714639592639
aF-0.00024104242262111723
ababag43
abag2
(g3
g4
Ntp717
Rp718
(lp719
F0.7976313233375549
abag2
(g3
g4
Ntp720
Rp721
(lp722
F1.0953773260116577
abag2
(g50
g4
Ntp723
Rp724
(lp725
(F1.0519953966140747
F1.1785551309585571
F1.2233490943908691
F1.1601150035858154
F1.2187023162841797
F1.2595479488372803
F1.2224433422088623
F1.192877173423767
F1.3565000295639038
F1.29674232006073
F1.2343477010726929
F1.1951589584350586
F1.1366193294525146
F1.2095201015472412
F1.2840068340301514
F1.2780193090438843
F1.4033255577087402
F1.315667986869812
F1.2297133207321167
F1.2945631742477417
F1.338000774383545
F1.3988161087036133
F1.2415733337402344
F1.4364932775497437
F1.3714045286178589
F1.6589059829711914
F1.6639474630355835
F1.6462262868881226
F1.5883076190948486
F1.5346029996871948
Fnan
F1.6299020051956177
F1.5806034803390503
Fnan
F1.6903389692306519
F1.829427719116211
F1.7873667478561401
F1.912676453590393
F2.109294891357422
F2.0498199462890625
F2.0828194618225098
F2.188559055328369
F2.225538730621338
F2.2900235652923584
F2.63334059715271
F2.5335757732391357
F2.7078375816345215
F2.6667158603668213
F2.9670944213867188
F3.258650064468384
F3.2141826152801514
F3.528160572052002
F3.716557741165161
F4.059666633605957
tp726
ababaa(lp727
g2
(g3
g4
Ntp728
Rp729
(lp730
F0.7853981633974483
abag2
(g3
g4
Ntp731
Rp732
(lp733
F0.0
abag2
(g11
g4
Ntp734
Rp735
(lp736
g2
(g15
g4
Ntp737
Rp738
(lp739
S'mobile_base'
p740
ag2
(g20
g4
Ntp741
Rp742
(lp743
g2
(g24
g4
Ntp744
Rp745
(lp746
F9.001611188826562
aF-6.996166798842304
aF-0.0011305943369481208
abag2
(g28
g4
Ntp747
Rp748
(lp749
F0.0015930839853209493
aF-0.003667425595397563
aF0.3827529137374952
aF0.923842096409541
ababag2
(g32
g4
Ntp750
Rp751
(lp752
g2
(g36
g4
Ntp753
Rp754
(lp755
F0.00027180938633528177
aF-0.00025419767983763536
aF7.03478703310717e-05
abag2
(g36
g4
Ntp756
Rp757
(lp758
F-0.00275152810416017
aF-0.002686943283482655
aF0.0003228295404683312
ababag43
abag2
(g3
g4
Ntp759
Rp760
(lp761
F0.9144628643989563
abag2
(g3
g4
Ntp762
Rp763
(lp764
F-0.018587777391076088
abag2
(g50
g4
Ntp765
Rp766
(lp767
(F1.1000806093215942
F0.9759907126426697
F1.1122368574142456
F1.1004009246826172
F1.1267060041427612
F1.1659504175186157
F1.0628117322921753
F1.2128456830978394
F1.2359309196472168
F1.082565188407898
F1.2373276948928833
F1.1245170831680298
F1.1069451570510864
F1.172481894493103
F1.3391355276107788
F1.1826000213623047
F1.252497673034668
F1.2067822217941284
F1.4562301635742188
F1.245703101158142
F1.1687161922454834
F1.1624642610549927
F1.4591118097305298
F1.2834928035736084
F1.53765869140625
F1.4334454536437988
F1.4572715759277344
F1.657028317451477
F1.5014415979385376
F1.5733712911605835
Fnan
F1.5188086032867432
F1.6841790676116943
Fnan
F1.8441249132156372
F1.9407144784927368
F1.7584763765335083
F2.0157952308654785
F2.102651357650757
F2.133756399154663
F2.1168880462646484
F2.2485010623931885
F2.386408567428589
F2.3850181102752686
F2.301833152770996
F2.6938138008117676
F2.9510018825531006
F2.70798397064209
F2.9992992877960205
F3.0590779781341553
F3.229473829269409
F3.578213930130005
F3.7417683601379395
F4.07940149307251
tp768
ababaa.