(lp0
(lp1
F-2.356194490192345
aF0.0
a(lp2
F6.000162919813447
aF1.0044975341122961
aF-0.0011307576066079128
aa(lp3
F-0.003678487557584848
aF-0.0015677952891412824
aF-0.9237786380117377
aF0.38290604422024893
aa(F4.339797496795654
F4.274231910705566
F4.389863014221191
F4.130539894104004
F4.369356632232666
F4.462843894958496
F4.195833206176758
F4.148379325866699
F4.201114177703857
F4.3087873458862305
F4.0757927894592285
F4.226705551147461
F4.255717754364014
F4.297651290893555
F4.285836219787598
F4.012197971343994
F4.33277702331543
F4.114719390869141
F4.320759296417236
F4.179450035095215
F4.2615156173706055
F4.2588372230529785
F4.347235679626465
F4.102769374847412
F4.1806135177612305
F4.316777229309082
F4.351344585418701
Fnan
Fnan
Fnan
Fnan
Fnan
Fnan
Fnan
Fnan
Fnan
F4.8871917724609375
F4.9398722648620605
F4.797153472900391
F4.828496932983398
F4.606317520141602
F4.505832672119141
F4.30725622177124
F4.380258560180664
F4.44700813293457
F4.468254089355469
F4.099269390106201
F4.084098815917969
F4.094516754150391
F3.974266290664673
F4.051941394805908
F4.097653865814209
F3.9459939002990723
F3.9330122470855713
tp4
aa(lp5
F-2.356194490192345
aF1.0
a(lp6
F5.293210078687513
aF0.29720853779360645
aF-0.001130992034380801
aa(lp7
F-0.00367789303749116
aF-0.0015671305119180536
aF-0.9240850363915499
aF0.3821660146088233
aa(F3.305619239807129
F3.4816980361938477
F3.426650285720825
F3.3400206565856934
F3.3488099575042725
F3.2689902782440186
F3.43835711479187
F3.247373104095459
F3.5742690563201904
F3.5129404067993164
F3.2935352325439453
F3.1691040992736816
F3.378645181655884
F3.253588914871216
F3.210707664489746
F3.087441921234131
F3.2782883644104004
F3.4014511108398438
F3.2867846488952637
F3.3883769512176514
F3.1785943508148193
F3.1138875484466553
F3.3167920112609863
F3.115978240966797
F3.3006389141082764
F3.2235283851623535
F3.3270792961120605
Fnan
Fnan
F4.964755535125732
Fnan
F4.614233016967773
F4.6640214920043945
Fnan
F4.383181571960449
F4.30680513381958
F4.389596462249756
F4.184166431427002
F4.150701522827148
F4.077051639556885
F4.130461692810059
F3.8729820251464844
F3.8309783935546875
F3.8360519409179688
F3.5504984855651855
F3.8344056606292725
F3.6921446323394775
F3.3623712062835693
F3.562316417694092
F3.416198253631592
F3.373723030090332
F3.3248512744903564
F3.2024576663970947
F3.1965553760528564
tp8
aa(lp9
F-3.141592653589793
aF0.0
a(lp10
F5.293443280419146
aF0.29689500334728974
aF-0.0011307484622269937
aa(lp11
F-0.003998534163412585
aF-3.4743985566632736e-05
aF-0.9999919896055904
aF-0.0001767542146328791
aa(F1.566084861755371
F1.673694372177124
F1.6299211978912354
F1.7396759986877441
F1.8042902946472168
F1.808912992477417
F2.0319275856018066
F1.9777047634124756
F2.1046481132507324
F2.005765676498413
F2.381706476211548
F2.3192784786224365
F2.3177807331085205
F4.777431488037109
F4.492629528045654
F4.534055233001709
F4.241961479187012
F4.307761192321777
F4.256211280822754
F4.280773162841797
F4.092813968658447
F3.802894115447998
F4.029695510864258
F3.8421146869659424
F3.8988304138183594
F3.808640718460083
F3.6817095279693604
F3.701216220855713
F3.830730676651001
F3.7793874740600586
Fnan
F3.6352126598358154
F3.4580178260803223
Fnan
F3.4438018798828125
F3.4879164695739746
F3.386733055114746
F3.369879722595215
F3.3308043479919434
F3.267479419708252
F3.387528419494629
F3.271040201187134
F3.3642401695251465
F3.256406784057617
F3.300318479537964
F3.092538595199585
F3.158864974975586
F3.235025405883789
F3.313791036605835
F3.2405760288238525
F3.4259042739868164
F3.4415805339813232
F3.286644697189331
F3.0857596397399902
tp12
aa(lp13
F-3.141592653589793
aF1.0
a(lp14
F4.293432777948084
aF0.29673949858169474
aF-0.0011307272997549966
aa(lp15
F-0.0039983826049270746
aF-2.2433189609121613e-05
aF-0.9999919924172039
aF-0.00016593603435119156
aa(F1.4531867504119873
F1.4283252954483032
F1.5025017261505127
F4.360135555267334
F4.079163074493408
F3.9433131217956543
F3.9493982791900635
F3.8707079887390137
F3.748110294342041
F3.6981070041656494
F3.4312796592712402
F3.752061128616333
F3.5316286087036133
F3.3843562602996826
F3.2726869583129883
F3.264939069747925
F3.2471656799316406
F3.1509649753570557
F3.1347341537475586
F3.0669291019439697
F3.0623066425323486
F3.0392985343933105
F2.832348108291626
F2.9627137184143066
F2.765911817550659
F2.852964162826538
F2.97261905670166
F2.6953577995300293
F2.6637251377105713
F2.8937981128692627
Fnan
F2.7020089626312256
F2.8584799766540527
Fnan
F2.3692145347595215
F2.6192445755004883
F2.481060028076172
F2.5755393505096436
F2.3862853050231934
F2.3833062648773193
F2.3317601680755615
F2.1734254360198975
F2.4250617027282715
F2.5936942100524902
F2.444772720336914
F2.375715970993042
F2.5318315029144287
F2.192440986633301
F2.236184597015381
F2.2488114833831787
F2.351533889770508
F2.3099491596221924
F2.412827253341675
F2.499448776245117
tp16
aa(lp17
F-3.141592653589793
aF1.0
a(lp18
F3.2934269711945365
aF0.2966652658611419
aF-0.0011307416635902567
aa(lp19
F-0.0039983657126959685
aF-4.945948823700861e-05
aF-0.9999920017216211
aF-8.436925978524761e-05
aa(F3.0462536811828613
F2.997800350189209
F2.9493794441223145
F2.8371262550354004
F2.836893320083618
F2.784752130508423
F2.5473217964172363
F2.6401665210723877
F2.466561794281006
F2.5803442001342773
F2.3207874298095703
F2.292708158493042
F2.322176694869995
F2.1098926067352295
F2.11293625831604
F2.084705352783203
F2.0008342266082764
F2.1069087982177734
F1.890950322151184
F1.887831211090088
F1.9407966136932373
F1.84719717502594
F2.0184340476989746
F1.785035252571106
F1.8313809633255005
F1.778701901435852
F2.0044915676116943
F1.6204155683517456
F1.6752253770828247
F1.783452033996582
Fnan
F1.5467278957366943
F1.7788143157958984
Fnan
F1.5108799934387207
F1.5711488723754883
F1.5725717544555664
F1.6297037601470947
F1.6832516193389893
F1.574191927909851
F1.513527274131775
F1.501914620399475
F1.6006207466125488
F1.7726044654846191
F1.358176827430725
F1.5165293216705322
F1.364092230796814
F1.465022087097168
F1.3781952857971191
F1.5528690814971924
F1.431753396987915
F1.584087610244751
F1.5726288557052612
F1.5342615842819214
tp20
aa(lp21
F2.356194490192345
aF0.0
a(lp22
F3.2933149549843406
aF0.2957236206374124
aF-0.0011307214904994478
aa(lp23
F0.0037055542389186433
aF-0.001502281668814981
aF0.9238036505065692
aF0.38284569649965566
aa(F0.8403436541557312
F0.6388015747070312
F0.8227713704109192
F0.8856168389320374
F0.9316563010215759
F0.8308417201042175
F0.8326255679130554
F0.9612694978713989
F0.6098936200141907
F0.9933872222900391
F0.9938227534294128
F0.7730359435081482
F1.1468710899353027
F0.9317278861999512
F1.4151703119277954
F1.1997884511947632
F1.3261938095092773
F1.551372766494751
F1.6926543712615967
F1.7951260805130005
F2.350398063659668
Fnan
Fnan
Fnan
Fnan
Fnan
Fnan
Fnan
Fnan
Fnan
Fnan
Fnan
F4.020091533660889
Fnan
F3.824826717376709
F3.5798516273498535
F3.1644976139068604
F3.1957883834838867
F3.2157037258148193
F3.147610902786255
F2.8292934894561768
F3.002882242202759
F2.79242205619812
F2.7949774265289307
F2.6097514629364014
F2.547875165939331
F2.5531163215637207
F2.5545523166656494
F2.475078582763672
F2.336771011352539
F2.342217206954956
F2.287928819656372
F2.401331901550293
F2.0813486576080322
tp24
aa(lp25
F2.356194490192345
aF1.0
a(lp26
F2.586064756102757
aF1.0027106285920857
aF-0.001130743072728868
aa(lp27
F0.003710763237645381
aF-0.0014899911592065789
aF0.9240731147445408
aF0.382194830902856
aa(F0.6106038689613342
F0.7490554451942444
F0.4621979296207428
F0.5326147675514221
F0.753944993019104
F0.5460547208786011
F0.896965742111206
F0.7893626093864441
F0.7709799408912659
F0.8845933079719543
F0.8766859173774719
F0.9446321725845337
F0.9353705644607544
F0.9993151426315308
F1.1782453060150146
F4.431873321533203
F4.768873691558838
Fnan
Fnan
Fnan
Fnan
Fnan
Fnan
Fnan
Fnan
Fnan
Fnan
Fnan
Fnan
Fnan
Fnan
Fnan
Fnan
Fnan
F2.8705687522888184
F2.943596839904785
F2.8563404083251953
F2.8825855255126953
F2.674077033996582
F2.4769833087921143
F2.3098104000091553
F2.308363914489746
F2.484142780303955
F2.0340917110443115
F2.263137102127075
F2.1306018829345703
F2.0785024166107178
F2.1503777503967285
F1.8556708097457886
F1.7355480194091797
F1.8237395286560059
F1.9032536745071411
F1.9760236740112305
F1.7232621908187866
tp28
aa(lp29
F2.356194490192345
aF1.0
a(lp30
F1.8788643242026384
aF1.7097388036787142
aF-0.0011307494172360377
aa(lp31
F0.0037056696275080303
aF-0.0015022936728486757
aF0.9240807930879472
aF0.3821762668877843
aa(F2.3772757053375244
F2.5644912719726562
F2.570117235183716
F2.5814731121063232
F2.640657901763916
F2.4151124954223633
F2.7496142387390137
F2.568552017211914
F2.7148962020874023
F3.080716133117676
F3.154633045196533
F3.3993616104125977
F3.4435431957244873
F3.8701469898223877
Fnan
Fnan
Fnan
Fnan
Fnan
Fnan
Fnan
Fnan
Fnan
Fnan
Fnan
Fnan
Fnan
Fnan
Fnan
Fnan
Fnan
Fnan
Fnan
Fnan
Fnan
Fnan
F2.249116897583008
F2.307232618331909
F2.240593671798706
F2.0036654472351074
F1.9605042934417725
F1.9587397575378418
F1.867990255355835
F1.729402780532837
F1.6630206108093262
F1.761855125427246
F1.5810478925704956
F1.6607365608215332
F1.6124799251556396
F1.4642143249511719
F1.435863971710205
F1.418302297592163
F1.5165961980819702
F1.59164297580719
tp32
aa(lp33
F2.356194490192345
aF1.0
a(lp34
F1.1716084238955655
aF2.416724879685474
aF-0.0011307386088222904
aa(lp35
F0.003706095817234602
aF-0.0015013414346691624
aF0.9240818496492194
aF0.38217371178113174
aa(F2.134305953979492
F2.0729565620422363
F2.0976035594940186
F2.3362953662872314
F2.2568373680114746
F2.3570704460144043
F2.4426755905151367
F2.65790057182312
F2.723572015762329
Fnan
Fnan
Fnan
Fnan
Fnan
Fnan
Fnan
Fnan
Fnan
Fnan
Fnan
Fnan
Fnan
Fnan
F4.937865734100342
F4.832401275634766
F4.852734565734863
F4.675052642822266
F4.52644681930542
F4.489883899688721
F4.42313289642334
Fnan
F4.264297962188721
F4.210389614105225
Fnan
F4.3452324867248535
F4.683724403381348
F4.682319164276123
F4.813602924346924
F5.016030311584473
F4.9133100509643555
F5.195310592651367
F4.750460147857666
F4.841752529144287
F1.3631706237792969
F1.3752256631851196
F1.3198879957199097
F1.3595936298370361
F1.2668054103851318
F1.1156671047210693
F1.247228741645813
F1.271844744682312
F1.1589103937149048
F1.054772138595581
F0.9290638566017151
tp36
aa(lp37
F2.356194490192345
aF1.0
a(lp38
F0.46441036226310123
aF3.1237539529353624
aF-0.0011307435853794567
aa(lp39
F0.0037145618018197472
aF-0.0014806429702315014
aF0.9238417789152394
aF0.38275367700094165
aa(F1.8184341192245483
Fnan
Fnan
Fnan
Fnan
Fnan
Fnan
Fnan
Fnan
Fnan
Fnan
Fnan
Fnan
F5.1780524253845215
F4.96846342086792
F4.900632858276367
F4.658811092376709
F4.622663497924805
F4.484187602996826
F4.188609600067139
F4.225701332092285
F3.986912965774536
F3.8783812522888184
F4.036704063415527
F3.8534457683563232
F3.6817429065704346
F3.8736135959625244
F3.5662765502929688
F3.4520318508148193
F3.332871437072754
Fnan
F3.2765026092529297
F3.210402011871338
Fnan
F3.2138280868530273
F3.3501031398773193
F3.4615418910980225
F3.5065808296203613
F3.6715521812438965
F3.6614577770233154
F3.9077725410461426
F4.030475616455078
F4.176485061645508
F3.9840481281280518
F3.9845938682556152
F3.9590535163879395
F3.910196542739868
F3.78562068939209
F3.6201250553131104
F3.8205513954162598
F3.872136116027832
F3.635695695877075
F3.753037452697754
F3.6190154552459717
tp40
aa(lp41
F2.356194490192345
aF1.0
a(lp42
F-0.24274889494987062
aF3.8308191906822557
aF-0.0011311153773826965
aa(lp43
F0.0036854303355824247
aF-0.0015500543348914426
aF0.9240744414853734
aF0.38219162932787504
aa(Fnan
Fnan
Fnan
Fnan
Fnan
Fnan
Fnan
Fnan
F4.422407150268555
F4.480647087097168
F3.9371848106384277
F3.8640992641448975
F3.7249441146850586
F3.6922171115875244
F3.5471279621124268
F3.2807962894439697
F3.420912981033325
F3.3538763523101807
F3.166583776473999
F3.0457537174224854
F3.0815412998199463
F3.023050546646118
F2.8510475158691406
F2.902496576309204
F2.5830135345458984
F2.66925311088562
F2.558107376098633
F2.5166783332824707
F2.536623239517212
F2.319088935852051
Fnan
F2.476184606552124
F2.2777512073516846
Fnan
F2.234595537185669
F2.2118070125579834
F2.076988697052002
F2.3481786251068115
F2.2433533668518066
F2.530161142349243
F2.3679282665252686
F2.564281940460205
F2.5453948974609375
F2.6564462184906006
F2.8042151927948
F3.1003057956695557
F3.105545997619629
F3.050128698348999
F3.0170958042144775
F2.8263373374938965
F3.1356759071350098
F3.0087764263153076
F3.012558698654175
F3.0261406898498535
tp44
aa(lp45
F2.356194490192345
aF1.0
a(lp46
F-0.9499834818107268
aF4.537814838619718
aF-0.0011307382931388943
aa(lp47
F0.003706356871657754
aF-0.0015007591180237257
aF0.9238476513562957
aF0.38273950374146926
aa(F5.676177024841309
Fnan
Fnan
F3.57643723487854
F3.293616771697998
F3.1118710041046143
F3.0661470890045166
F2.893063545227051
F2.7315268516540527
F2.6926865577697754
F2.5302326679229736
F2.259641647338867
F2.3049519062042236
F2.3503756523132324
F2.283320665359497
F1.9922072887420654
F2.1017799377441406
F2.0594699382781982
F1.73139226436615
F1.804219126701355
F1.924665093421936
F1.8491909503936768
F1.7593871355056763
F1.5635892152786255
F1.6262297630310059
F1.6601698398590088
F1.7534828186035156
F1.5534560680389404
F1.4410325288772583
F1.3962496519088745
Fnan
F1.1711870431900024
F1.6378989219665527
Fnan
F1.3870152235031128
F1.4221097230911255
F1.4854048490524292
F1.2942496538162231
F1.412174940109253
F1.2964568138122559
F1.3571234941482544
F1.3669397830963135
F1.4016185998916626
F1.2631421089172363
F1.307753086090088
F1.2349917888641357
F1.4855575561523438
F1.4324568510055542
F1.4927349090576172
F1.6488100290298462
F1.73591947555542
F1.6996647119522095
F1.6382662057876587
F2.127584218978882
tp48
aa(lp49
F2.356194490192345
aF0.0
a(lp50
F-0.9502330081746722
aF4.537609316146399
aF-0.001130748242427454
aa(lp51
F0.0037067008118520876
aF-0.0014999086592421033
aF0.923795208773702
aF0.38286606390467354
aa(F5.726402282714844
Fnan
Fnan
F3.461827278137207
F3.3513026237487793
F3.1744654178619385
F3.1673121452331543
F2.7438440322875977
F2.8324999809265137
F2.623048782348633
F2.587695360183716
F2.2509803771972656
F2.406097888946533
F2.371506929397583
F2.2455761432647705
F2.0525288581848145
F2.0141358375549316
F2.171980619430542
F1.7689770460128784
F1.7801411151885986
F1.8596495389938354
F1.863847255706787
F1.884502649307251
F1.9049837589263916
F1.667349934577942
F1.5824854373931885
F1.4392808675765991
F1.5277035236358643
F1.6433534622192383
F1.4371881484985352
Fnan
F1.5701473951339722
F1.4523565769195557
Fnan
F1.3023409843444824
F1.378324270248413
F1.486352801322937
F1.378501534461975
F1.3127745389938354
F1.3479501008987427
F1.2318620681762695
F1.3490856885910034
F1.405816912651062
F1.352863073348999
F1.0571368932724
F1.1923186779022217
F1.357650637626648
F1.4297736883163452
F1.4956958293914795
F1.507360816001892
F1.677976369857788
F1.7221165895462036
F1.8523979187011719
F2.1034598350524902
tp52
aa.