(lp0
(lp1
F-1.5707963267948966
aF0.0
a(lp2
F6.000490348034832
aF1.0074713724229312
aF-0.0011307422275420032
aa(lp3
F-0.0028059635372933802
aF-0.0028488059565006077
aF-0.7071490632167862
aF0.7070531898413808
aa(F4.712951183319092
F4.704104900360107
F4.4196367263793945
F4.448850631713867
F4.232129096984863
F4.456751823425293
F4.309619903564453
F4.156209945678711
F4.2655534744262695
F3.8425662517547607
F3.9287922382354736
F3.9849159717559814
F3.9347383975982666
F3.7518975734710693
F3.7289035320281982
F3.810930013656616
F3.9056856632232666
F3.8281126022338867
F3.846722364425659
F3.5862886905670166
F3.7519538402557373
F3.6975491046905518
F3.567188262939453
F3.4877562522888184
F3.4252285957336426
F3.577816963195801
F3.624460458755493
F3.4679653644561768
F3.355736255645752
F3.5344438552856445
Fnan
F3.479126453399658
F3.4840502738952637
Fnan
F3.435197114944458
F3.517158031463623
F3.432391881942749
F3.5520527362823486
F3.634955406188965
F3.3507235050201416
F3.331812620162964
F3.5739526748657227
F3.5333590507507324
F3.499382495880127
F3.4582266807556152
F3.5203030109405518
F3.4986844062805176
F3.3891091346740723
F3.5390818119049072
F3.5387487411499023
F3.594386100769043
F3.364896297454834
F3.6570043563842773
F3.7251193523406982
tp4
aa(lp5
F-1.5707963267948966
aF1.0
a(lp6
F6.0007406500426645
aF0.007449214283497874
aF-0.0011307205811457444
aa(lp7
F-0.002807758172809842
aF-0.0028467898722964813
aF-0.7065800643045157
aF0.7076218093083991
aa(F3.4290709495544434
F3.087191581726074
F3.1054205894470215
F3.145521640777588
F3.3781898021698
F3.08195161819458
F3.234117269515991
F2.952103614807129
F2.7975361347198486
F2.9569950103759766
F2.933504581451416
F2.7713282108306885
F2.8716061115264893
F2.644700527191162
F2.6523354053497314
F2.904456615447998
F2.6190242767333984
F2.7093870639801025
F2.600621223449707
F2.8495278358459473
F2.5211033821105957
F2.58943510055542
F2.6830897331237793
F2.6489875316619873
F2.4076058864593506
F2.6854374408721924
F2.5885696411132812
F2.5493807792663574
F2.5225470066070557
F2.628089189529419
Fnan
F2.4943511486053467
F2.464423656463623
Fnan
F2.456822633743286
F2.4483020305633545
F2.413151502609253
F2.5155630111694336
F2.519805669784546
F2.4169535636901855
F2.386047840118408
F2.3299598693847656
F2.6772446632385254
F2.302701950073242
F2.5115509033203125
F2.4822709560394287
F2.3157944679260254
F2.7052550315856934
F2.5665700435638428
F2.8028268814086914
F2.4775197505950928
F2.4882664680480957
F2.489546298980713
F2.6020524501800537
tp8
aa(lp9
F-1.5707963267948966
aF1.0
a(lp10
F6.00082952333971
aF-0.9925593618288313
aF-0.0011309906455514718
aa(lp11
F-0.0028053359057785897
aF-0.0028481258109415504
aF-0.7065800497877066
aF0.7076218280351609
aa(F2.104212999343872
F2.052786111831665
F1.8470057249069214
F1.9923771619796753
F1.8999323844909668
F2.1245336532592773
F1.8919838666915894
F1.8174182176589966
F1.6941360235214233
F1.7835294008255005
F1.8093535900115967
F1.7072944641113281
F1.7119529247283936
F1.8583252429962158
F1.7171305418014526
F1.6367965936660767
F1.6520142555236816
F1.7268190383911133
F1.7528499364852905
F1.518905520439148
F1.6611950397491455
F1.4457029104232788
F1.6681766510009766
F1.7569681406021118
F1.5229071378707886
F1.5041812658309937
F1.5259264707565308
F1.5256373882293701
F1.6601775884628296
F1.4645730257034302
Fnan
F1.5486174821853638
F1.592545509338379
Fnan
F1.3226796388626099
F1.5827183723449707
F1.3775081634521484
F1.3411439657211304
F1.3183579444885254
F1.4554816484451294
F1.3992770910263062
F1.4042004346847534
F1.5275050401687622
F1.4879270792007446
F1.414230227470398
F1.6420892477035522
F1.4654464721679688
F1.6861504316329956
F1.5296006202697754
F1.3370585441589355
F1.5148754119873047
F1.788337230682373
F1.5392314195632935
F1.5299427509307861
tp12
aa(lp13
F-1.5707963267948966
aF1.0
a(lp14
F6.0009393941193165
aF-1.9925682398258853
aF-0.001130729111795764
aa(lp15
F-0.002800339946673883
aF-0.002854211129014445
aF-0.7071529332997235
aF0.7070493197087533
aa(F0.6212232112884521
F0.7701720595359802
F0.73509681224823
F0.6671072840690613
F0.8229423761367798
F0.6765090227127075
F0.6216627359390259
F0.7194690108299255
F0.5891678929328918
F0.5419461131095886
F0.6153745055198669
F0.6125250458717346
F0.551059901714325
F0.5676138401031494
F0.5347044467926025
F0.3700472116470337
F0.6136322021484375
F0.5832878947257996
F0.48830828070640564
F0.5669896006584167
F0.7711870074272156
F0.5439895987510681
F0.5419230461120605
F0.6340182423591614
F0.6154847741127014
F0.7856469750404358
F0.4665255546569824
F0.48764604330062866
F0.5135073661804199
F0.5332309007644653
Fnan
F0.6427409648895264
F0.5717114210128784
Fnan
F0.6288909316062927
F0.5400172472000122
F0.5045514702796936
F0.4184662699699402
F0.5404066443443298
F0.6028868556022644
F0.5434903502464294
F0.5502833127975464
F0.5374417901039124
F0.412006676197052
F0.5654104351997375
F0.5202603936195374
F0.4531054198741913
F0.7052658796310425
F0.5491011142730713
F0.36933401226997375
F0.3063526451587677
F0.38693806529045105
F0.4712403118610382
F0.6242797374725342
tp16
aa(lp17
F-3.141592653589793
aF0.0
a(lp18
F6.001784937392348
aF-1.9926765711280008
aF-0.0011309905647061969
aa(lp19
F-0.003997627914991967
aF-2.813246614440719e-05
aF-0.99999199242719
aF-0.0001823763044118168
aa(F5.4392266273498535
F5.450239658355713
F5.110154151916504
F4.99810266494751
F4.919737815856934
F4.673330307006836
F4.390322208404541
F4.427387714385986
F4.1747260093688965
F4.3971781730651855
F4.134682655334473
F3.982800245285034
F3.9716875553131104
F3.9092419147491455
F3.6606078147888184
F3.82663631439209
F3.721620798110962
F3.4651618003845215
F3.451584815979004
F3.5487735271453857
F3.3387155532836914
F3.3931403160095215
F3.1934969425201416
F3.182283878326416
F3.0922839641571045
F2.9161627292633057
F3.1112122535705566
Fnan
Fnan
Fnan
Fnan
Fnan
Fnan
Fnan
Fnan
Fnan
Fnan
Fnan
Fnan
Fnan
Fnan
Fnan
F5.161552906036377
F4.213940620422363
F3.432298421859741
F3.071960210800171
F2.4497947692871094
F2.2420756816864014
F1.868685007095337
F2.097524881362915
F1.8101969957351685
F1.7786208391189575
F1.604663372039795
F1.4885627031326294
tp20
aa(lp21
F-3.141592653589793
aF1.0
a(lp22
F5.001770315189695
aF-1.9928032346134241
aF-0.0011311156175025927
aa(lp23
F-0.003998058512531246
aF2.433964815209094e-05
aF-0.999991991763394
aF-0.0001770446048346107
aa(F3.5093483924865723
F3.7077603340148926
F3.552564859390259
F3.328697681427002
F3.201730489730835
F3.2758612632751465
F3.172837972640991
F2.8550198078155518
F3.0278255939483643
F2.9373300075531006
F2.770017147064209
F2.818570137023926
F2.679466962814331
F2.3920273780822754
F2.5641658306121826
F2.4905638694763184
F2.375276565551758
F2.291398763656616
F2.215674877166748
F2.4055776596069336
F2.4025590419769287
F2.138683557510376
F2.223552942276001
F2.103717565536499
F2.1611647605895996
F2.1530263423919678
F2.0946996212005615
Fnan
Fnan
Fnan
Fnan
Fnan
Fnan
Fnan
Fnan
Fnan
Fnan
Fnan
Fnan
Fnan
Fnan
Fnan
Fnan
Fnan
F5.144709587097168
F4.434872627258301
F3.984445810317993
F3.5102450847625732
F3.2870452404022217
F2.9714510440826416
F2.8427884578704834
F2.4751529693603516
F2.483944892883301
F2.2189416885375977
tp24
aa(lp25
F-3.141592653589793
aF1.0
a(lp26
F4.001765432978569
aF-1.9928823492634058
aF-0.0011307226538407322
aa(lp27
F-0.0039983584806083505
aF-2.4620175493712134e-05
aF-0.9999920031239243
aF-7.881312667514091e-05
aa(F1.925821304321289
F1.7213431596755981
F1.818684458732605
F1.8189486265182495
F1.488782525062561
F1.5939682722091675
F1.7024441957473755
F1.5459920167922974
F1.7220622301101685
F1.2426215410232544
F1.4979510307312012
F1.2716084718704224
F1.5307697057724
F1.4958690404891968
F1.344478726387024
F1.314735770225525
F1.3687152862548828
F1.1039013862609863
F1.0292044878005981
F1.224285364151001
F1.1192010641098022
F1.2307467460632324
F1.2486261129379272
F1.1329683065414429
F1.1881805658340454
F1.2151328325271606
F1.1095918416976929
Fnan
Fnan
Fnan
Fnan
Fnan
Fnan
Fnan
Fnan
Fnan
Fnan
Fnan
Fnan
Fnan
Fnan
Fnan
Fnan
Fnan
Fnan
Fnan
F5.305903911590576
F4.89878511428833
F4.253078460693359
F3.912466526031494
F3.4979677200317383
F3.1996757984161377
F2.923679828643799
F3.0095715522766113
tp28
aa(lp29
F-2.356194490192345
aF0.0
a(lp30
F4.001588581831126
aF-1.9949189369344096
aF-0.0011307329969302282
aa(lp31
F-0.0036850200201125087
aF-0.0015517677950517604
aF-0.923839657303651
aF0.3827588016456767
aa(Fnan
Fnan
Fnan
Fnan
Fnan
Fnan
Fnan
F5.017451286315918
F4.390462398529053
F4.3045878410339355
F3.9236881732940674
F3.504495859146118
F3.453648567199707
F3.104614496231079
F3.0311710834503174
F2.722850799560547
F2.447787046432495
F2.547334671020508
F2.345579147338867
F2.218374490737915
F2.200484037399292
F2.238820791244507
F2.128004312515259
F2.091334581375122
F1.973934531211853
F1.7321230173110962
F1.8559221029281616
F1.651586890220642
F1.613905906677246
F1.5042319297790527
Fnan
F1.5484535694122314
F1.3476345539093018
Fnan
F1.4159756898880005
F1.484578013420105
F1.3563698530197144
F1.3011775016784668
F1.4247297048568726
F1.274018406867981
F1.2679431438446045
F1.3199001550674438
F1.0793346166610718
F1.2246108055114746
F1.1367502212524414
F1.2603815793991089
F0.9386459589004517
F1.0895819664001465
F1.0283219814300537
F1.095698356628418
F1.0311862230300903
F1.2620551586151123
F0.9788660407066345
F0.9396802186965942
tp32
aa(lp33
F-2.356194490192345
aF1.0
a(lp34
F3.294703004983125
aF-2.7022903036547445
aF-0.001130991930390679
aa(lp35
F-0.0036769701221715475
aF-0.0015692408745226055
aF-0.9236714640302764
aF0.38316451285311404
aa(F4.5803704261779785
F4.697290897369385
F4.3344316482543945
F3.599968194961548
F2.9961910247802734
F2.8551347255706787
F2.3485569953918457
F2.211116313934326
F1.9912357330322266
F1.6580451726913452
F1.4977689981460571
F1.4017622470855713
F1.4816479682922363
F1.2514817714691162
F0.9941909313201904
F1.0663554668426514
F1.0468206405639648
F0.8964162468910217
F1.0770996809005737
F1.0238964557647705
F1.0482288599014282
F0.786603569984436
F0.9149042367935181
F0.6042143106460571
F0.7057727575302124
F0.7571539282798767
F0.6969078183174133
F0.77559894323349
F0.7455329298973083
F0.7326820492744446
Fnan
F0.5065191388130188
F0.5386391282081604
Fnan
F0.6401959657669067
F0.6080397963523865
F0.5467690229415894
F0.4241514205932617
F0.5313159227371216
F0.7298998832702637
F0.575305700302124
F0.317004531621933
F0.6525328755378723
F0.5829914212226868
F0.37277302145957947
F0.4877082109451294
F0.5381794571876526
F0.4989124536514282
F0.6406667232513428
F0.46752920746803284
Fnan
Fnan
Fnan
Fnan
tp36
aa(lp37
F-3.141592653589793
aF0.0
a(lp38
F3.295046426109336
aF-2.70270726561139
aF-0.0011309905548570753
aa(lp39
F-0.003997624859166044
aF-2.7410110252274182e-05
aF-0.9999920058079271
aF-8.102104831369001e-05
aa(F3.4217841625213623
F4.155943870544434
F4.875018119812012
Fnan
Fnan
Fnan
Fnan
Fnan
Fnan
Fnan
Fnan
Fnan
Fnan
Fnan
Fnan
Fnan
Fnan
Fnan
Fnan
Fnan
Fnan
Fnan
Fnan
Fnan
Fnan
Fnan
Fnan
Fnan
Fnan
Fnan
Fnan
Fnan
Fnan
Fnan
F4.988842964172363
F5.1055827140808105
F4.978647232055664
F4.82598352432251
F4.745337963104248
F4.611393451690674
F4.519659996032715
F4.654455661773682
F3.7198712825775146
F3.0928077697753906
F2.5664656162261963
F2.265469789505005
F1.8305929899215698
F1.8744454383850098
F1.5351970195770264
F1.3579511642456055
F1.2027498483657837
F1.3675321340560913
F1.105422854423523
F1.13506019115448
tp40
aa(lp41
F-3.141592653589793
aF1.0
a(lp42
F2.2950253132057874
aF-2.702924181720837
aF-0.001130714254559767
aa(lp43
F-0.003998409071888464
aF-2.635789211377875e-05
aF-0.9999919857471798
aF-0.0002011754643075261
aa(Fnan
Fnan
Fnan
Fnan
Fnan
Fnan
Fnan
Fnan
Fnan
Fnan
Fnan
Fnan
Fnan
Fnan
Fnan
Fnan
Fnan
Fnan
Fnan
Fnan
Fnan
Fnan
Fnan
Fnan
F5.019170761108398
F4.831923484802246
F4.845620632171631
F4.717249393463135
F4.421789646148682
F4.56650447845459
Fnan
F4.379049777984619
F4.170873165130615
Fnan
F4.054608345031738
F3.888483762741089
F4.212035179138184
F4.1239399909973145
F3.8838393688201904
F3.7239694595336914
F3.884835958480835
F3.6768500804901123
F3.724868059158325
F3.6770849227905273
F3.759319543838501
F3.854708671569824
F3.455014228820801
F2.9103503227233887
F2.679795265197754
F2.464271068572998
F2.204700231552124
F1.9338819980621338
F1.9846338033676147
F1.882235050201416
tp44
aa(lp45
F-3.141592653589793
aF1.0
a(lp46
F1.2950161006090406
aF-2.703020312718819
aF-0.0011309911950591056
aa(lp47
F-0.003997626563441811
aF-3.0056252342951884e-05
aF-0.9999919957666645
aF-0.00016273009586015766
aa(Fnan
Fnan
Fnan
Fnan
Fnan
Fnan
Fnan
Fnan
Fnan
Fnan
Fnan
Fnan
Fnan
Fnan
F5.015780925750732
F4.817625045776367
F4.8141889572143555
F4.6476263999938965
F4.426960468292236
F4.449825763702393
F4.200925827026367
F4.085885524749756
F4.061507225036621
F4.13115930557251
F3.8837575912475586
F3.843179225921631
F3.7102103233337402
F3.843979597091675
F3.711690902709961
F3.5540390014648438
Fnan
F3.511007785797119
F3.2766525745391846
Fnan
F3.2017455101013184
F3.1103355884552
F3.164757251739502
F3.0980606079101562
F3.1971986293792725
F3.20841383934021
F3.089740514755249
F2.8790485858917236
F2.9360744953155518
F3.0012288093566895
F2.9531233310699463
F2.9077978134155273
F2.8703722953796387
F2.7758371829986572
F2.8404150009155273
F2.739652156829834
F2.7450811862945557
F2.5983505249023438
F2.718175172805786
F2.7174112796783447
tp48
aa(lp49
F-3.141592653589793
aF1.0
a(lp50
F0.2950025212336291
aF-2.703156816812118
aF-0.0011307522590375263
aa(lp51
F-0.003998428135575027
aF1.1091222467891574e-05
aF-0.9999920028512143
aF8.174990277960877e-05
aa(Fnan
Fnan
Fnan
Fnan
Fnan
F5.334733486175537
F4.900260925292969
F4.6546454429626465
F4.631147384643555
F4.589756965637207
F4.238828659057617
F4.138041019439697
F3.8357222080230713
F3.838223695755005
F3.740384578704834
F3.734642267227173
F3.5120956897735596
F3.567591667175293
F3.4101321697235107
F3.1486642360687256
F3.275750160217285
F3.0033175945281982
F2.8783087730407715
F2.8012099266052246
F2.8832716941833496
F2.6653201580047607
F2.8919851779937744
F2.726489782333374
F2.5593059062957764
F2.557490825653076
Fnan
F2.4329397678375244
F2.3999552726745605
Fnan
F2.231947422027588
F2.126368522644043
F2.274348497390747
F2.1499812602996826
F2.161342144012451
F2.3287770748138428
F2.2012240886688232
F2.269160270690918
F2.1439616680145264
F2.294546365737915
F2.0368034839630127
F2.123584270477295
F2.1331052780151367
F1.9722139835357666
F1.939842700958252
F2.026911497116089
F1.9890505075454712
F2.020294666290283
F1.96194589138031
F1.8765541315078735
tp52
aa(lp53
F-3.141592653589793
aF0.0
a(lp54
F0.2949867751949077
aF-2.703335024460153
aF-0.0011307420285884828
aa(lp55
F-0.003998499850795034
aF-8.61524649815064e-06
aF-0.9999918539161099
aF0.0005513856568111709
aa(Fnan
Fnan
Fnan
Fnan
Fnan
F5.172353744506836
F5.045808792114258
F4.813333511352539
F4.585013389587402
F4.651285171508789
F4.273527145385742
F4.0127997398376465
F4.039921760559082
F3.756869077682495
F3.8203608989715576
F3.5632424354553223
F3.4397244453430176
F3.253290891647339
F3.1658637523651123
F3.3031105995178223
F3.190725088119507
F2.9863975048065186
F2.860527753829956
F2.9925537109375
F3.000084161758423
F2.6699984073638916
F2.6072065830230713
F2.6758902072906494
F2.820770025253296
F2.4502222537994385
Fnan
F2.5446298122406006
F2.5130865573883057
Fnan
F2.5259811878204346
F2.445389986038208
F2.319708824157715
F2.300110340118408
F2.220046043395996
F2.200653553009033
F2.227057456970215
F2.2499866485595703
F2.2086386680603027
F2.1658804416656494
F2.1476891040802
F2.1387031078338623
F2.202908992767334
F2.1238887310028076
F2.0782530307769775
F2.1891608238220215
F1.9018597602844238
F2.0453147888183594
F2.004131317138672
F1.9788570404052734
tp56
aa.