(lp0
(lp1
F-1.5707963267948966
aF0.0
a(lp2
F-5.999837545727065
aF1.0046020153208741
aF-0.0011307221355484898
aa(lp3
F-0.002805960673502105
aF-0.002848604643863068
aF-0.7071694141887581
aF0.7070328363465238
aa(F2.081268787384033
F2.1408283710479736
F2.3585543632507324
F2.118272542953491
F2.359760046005249
F2.3263628482818604
F2.585822582244873
F2.564833164215088
F2.6912364959716797
F2.8955440521240234
F3.1557953357696533
F3.3575148582458496
F3.5181102752685547
F3.888526678085327
F4.113258361816406
F4.376312732696533
F4.715743541717529
Fnan
Fnan
Fnan
Fnan
Fnan
Fnan
Fnan
Fnan
Fnan
Fnan
Fnan
Fnan
Fnan
Fnan
Fnan
Fnan
Fnan
Fnan
Fnan
Fnan
F4.896792411804199
F4.581211566925049
F4.118837356567383
F3.945488452911377
F3.7279438972473145
F3.840909481048584
F3.7753212451934814
F3.770932674407959
F3.866584539413452
F3.9376680850982666
F3.9584693908691406
F3.9109396934509277
F4.090837001800537
F2.232677698135376
F2.006436347961426
F2.169253349304199
F1.8346500396728516
tp4
aa(lp5
F-1.5707963267948966
aF1.0
a(lp6
F-5.9996395446489466
aF0.004581927918730609
aF-0.001131115761112883
aa(lp7
F-0.00284412516509698
aF-0.002809986483924878
aF-0.7071496357638625
aF0.7070526200835706
aa(F2.032806873321533
F2.0668821334838867
F2.100952386856079
F2.4013819694519043
F2.3584179878234863
F2.6044235229492188
F2.553640127182007
F2.6219916343688965
F2.878223419189453
F3.10552978515625
F2.9653491973876953
F3.3853704929351807
F3.5463452339172363
F3.7840826511383057
F4.088248252868652
F4.392611503601074
F4.751720428466797
Fnan
Fnan
Fnan
Fnan
Fnan
Fnan
Fnan
Fnan
Fnan
Fnan
Fnan
Fnan
Fnan
Fnan
Fnan
Fnan
Fnan
Fnan
Fnan
Fnan
F4.858797073364258
F4.5014801025390625
F4.030789852142334
F3.7052884101867676
F3.3375959396362305
F3.268662214279175
F3.2288691997528076
F3.2132861614227295
F2.8363234996795654
F2.9697561264038086
F2.727186918258667
F2.775404453277588
F2.732194185256958
F2.937997817993164
F2.930485248565674
F3.0186867713928223
F3.0726993083953857
tp8
aa(lp9
F-1.5707963267948966
aF1.0
a(lp10
F-5.999360499050005
aF-0.9954379110359975
aF-0.0011309910012659574
aa(lp11
F-0.0028065157730362104
aF-0.0028469779304672585
aF-0.7071480904874511
aF0.7070541678724698
aa(F2.0333070755004883
F2.014529228210449
F1.9099507331848145
F2.242896318435669
F2.3274195194244385
F2.4291675090789795
F2.561903476715088
F2.707958221435547
F2.8039121627807617
F2.977447986602783
F3.1641204357147217
F3.2433884143829346
F3.3867971897125244
F3.8925046920776367
F3.984379768371582
F4.178036689758301
F4.705381393432617
Fnan
Fnan
Fnan
Fnan
Fnan
Fnan
Fnan
Fnan
Fnan
Fnan
Fnan
Fnan
Fnan
Fnan
Fnan
Fnan
Fnan
Fnan
Fnan
Fnan
Fnan
Fnan
F4.114064693450928
F3.792574405670166
F3.5210883617401123
F3.4986088275909424
F3.3237221240997314
F2.9919543266296387
F2.999951124191284
F2.649712562561035
F2.5159294605255127
F2.4509925842285156
F2.4225404262542725
F2.062696695327759
F2.229337692260742
F2.1415369510650635
F2.124060869216919
tp12
aa(lp13
F-1.5707963267948966
aF1.0
a(lp14
F-5.999170763255646
aF-1.9954551207470899
aF-0.001130751526124324
aa(lp15
F-0.00280927380169067
aF-0.0028454635424651794
aF-0.7072302219555355
aF0.706972011094258
aa(F1.9854177236557007
F2.094245672225952
F2.1139392852783203
F2.237140655517578
F2.343153238296509
F2.5224053859710693
F2.570517063140869
F2.7891268730163574
F2.6952853202819824
F2.951869487762451
F3.195091485977173
F3.2062835693359375
F3.661060094833374
F3.8671016693115234
F4.136313438415527
F4.4268107414245605
F4.660723686218262
Fnan
Fnan
Fnan
Fnan
Fnan
Fnan
Fnan
Fnan
Fnan
Fnan
Fnan
Fnan
Fnan
Fnan
Fnan
Fnan
Fnan
Fnan
Fnan
Fnan
Fnan
Fnan
Fnan
Fnan
Fnan
Fnan
F3.175877571105957
F3.081587553024292
F2.7884693145751953
F2.616826057434082
F2.669577121734619
F2.6110353469848633
F2.3158721923828125
F2.2800326347351074
F2.1937143802642822
F2.0021798610687256
F2.012673854827881
tp16
aa(lp17
F-1.5707963267948966
aF1.0
a(lp18
F-5.999049134631655
aF-2.995469049479906
aF-0.001130991293958633
aa(lp19
F-0.0028087672522372218
aF-0.0028447300514669086
aF-0.7072501498990038
aF0.7069520802751016
aa(F2.0649173259735107
F2.078076124191284
F2.1593339443206787
F1.9374895095825195
F2.325326442718506
F2.5017197132110596
F2.497950315475464
F2.7865965366363525
F2.792330741882324
F3.1431679725646973
F3.2594716548919678
F3.276648759841919
F3.5150043964385986
F3.750828981399536
F4.114068984985352
F4.24041223526001
F4.124006271362305
F4.302857875823975
F3.9101192951202393
F4.17810583114624
F4.18265962600708
F4.123494625091553
F4.060496807098389
F4.023792743682861
F3.892956495285034
F4.088271141052246
F4.193889617919922
F4.1678466796875
F4.069138050079346
F4.171536922454834
Fnan
F4.07414436340332
F4.313406467437744
Fnan
F4.072817325592041
F4.192035675048828
F4.039398193359375
F4.084782600402832
F4.189598083496094
F4.047619819641113
F4.43543815612793
F4.243103981018066
F4.303990840911865
F4.393523216247559
F4.346879005432129
F4.348640441894531
F4.477542877197266
F4.390427589416504
F4.657454013824463
F4.620985507965088
F2.21362566947937
F2.0700912475585938
F1.9962732791900635
F1.9956672191619873
tp20
aa(lp21
F-1.5707963267948966
aF1.0
a(lp22
F-5.998934079016818
aF-3.9954817844679216
aF-0.0011307464964253333
aa(lp23
F-0.0028055767411302663
aF-0.0028491943973745627
aF-0.7071596538571979
aF0.7070425975759901
aa(F1.8705954551696777
F2.2045016288757324
F2.244880199432373
F2.1161842346191406
F2.5179219245910645
F2.543663263320923
F2.6363115310668945
F2.564373016357422
F2.761140823364258
F2.8770742416381836
F3.1904401779174805
F3.2046055793762207
F3.0110421180725098
F3.077103853225708
F3.0300252437591553
F3.1023037433624268
F3.3317043781280518
F3.14884352684021
F3.110874652862549
F3.198730707168579
F3.0961685180664062
F3.1937854290008545
F3.247783899307251
F3.1899635791778564
F2.9632678031921387
F3.087920665740967
F3.1983563899993896
F3.1423187255859375
F3.041512966156006
F2.851548910140991
Fnan
F3.151062488555908
F3.329644203186035
Fnan
F2.933112382888794
F3.174152374267578
F2.9991345405578613
F3.080659866333008
F3.1532981395721436
F3.1372909545898438
F3.269089698791504
F3.2731781005859375
F3.1270689964294434
F3.0969700813293457
F3.2739555835723877
F3.1834499835968018
F3.3614861965179443
F3.380655527114868
F3.509775161743164
F3.514639377593994
F3.5633351802825928
F3.5911941528320312
F3.547429084777832
F3.419874906539917
tp24
aa(lp25
F-1.5707963267948966
aF1.0
a(lp26
F-5.998780108621034
aF-4.9954944957844365
aF-0.0011307205145516253
aa(lp27
F-0.002810324607244011
aF-0.002844269980640161
aF-0.7075000691221628
aF0.7067019629207308
aa(F2.0214860439300537
F2.2003262042999268
F2.069258689880371
F2.3168399333953857
F2.345592975616455
F2.274432897567749
F2.0434653759002686
F2.4017086029052734
F2.3978331089019775
F2.3195927143096924
F2.3266303539276123
F2.2414820194244385
F2.297926425933838
F2.061469793319702
F2.2024476528167725
F2.188965082168579
F2.162942409515381
F2.058939218521118
F2.137573480606079
F2.163576126098633
F2.2251768112182617
F2.0719048976898193
F2.144902229309082
F2.163471221923828
F2.140536308288574
F2.0999414920806885
F1.7977628707885742
F2.0695676803588867
F2.1903882026672363
F2.013875722885132
Fnan
F2.2623989582061768
F2.221275568008423
Fnan
F2.1614372730255127
F2.0186116695404053
F2.098724365234375
F2.1432900428771973
F2.116760730743408
F2.2174439430236816
F2.076378583908081
F2.052440881729126
F2.213017225265503
F2.261788845062256
F2.1719632148742676
F1.9327738285064697
F2.357372522354126
F2.035102367401123
F2.313478708267212
F2.3209779262542725
F2.4718313217163086
F2.302474021911621
F2.285627841949463
F2.4354515075683594
tp28
aa(lp29
F-1.5707963267948966
aF1.0
a(lp30
F-5.998673799346047
aF-5.995502855709612
aF-0.0011305954915436511
aa(lp31
F-0.002777674127011835
aF-0.002876174380739304
aF-0.7067320956075162
aF0.7074699691051093
aa(F1.2087849378585815
F1.3306667804718018
F1.4085352420806885
F1.2848443984985352
F1.3100835084915161
F1.2544033527374268
F1.398972749710083
F1.1493815183639526
F1.1992679834365845
F0.9835394620895386
F1.1378237009048462
F1.1955429315567017
F1.1725331544876099
F1.2752926349639893
F1.2211472988128662
F1.1589077711105347
F1.0560872554779053
F1.0948364734649658
F1.0580651760101318
F1.1430702209472656
F1.1180534362792969
F1.1274657249450684
F1.0766773223876953
F1.07358717918396
F1.275486946105957
F1.0363558530807495
F1.1043694019317627
F1.1272653341293335
F1.0548561811447144
F1.1157746315002441
Fnan
F1.1697155237197876
F1.1083768606185913
Fnan
F1.0476950407028198
F1.0243159532546997
F0.8000655770301819
F1.2630093097686768
F1.0415749549865723
F1.0142505168914795
F1.129347801208496
F1.243327260017395
F1.1477758884429932
F1.1498788595199585
F1.2369050979614258
F1.207679271697998
F1.1885566711425781
F1.1672978401184082
F1.2889477014541626
F1.113681435585022
F1.3101482391357422
F1.180993676185608
F1.372058629989624
F1.2562661170959473
tp32
aa(lp33
F-0.7853981633974483
aF0.0
a(lp34
F-5.996062163401279
aF-5.995739471075227
aF-0.001130766307249953
aa(lp35
F-0.0014939148594103797
aF-0.003709159483672513
aF-0.38283200762126546
aF0.9238093224767701
aa(F1.1218163967132568
F0.9150370955467224
F0.9760018587112427
F0.8652027249336243
F0.828883945941925
F1.1072697639465332
F1.270545482635498
F1.1944776773452759
F1.0100771188735962
F1.151358723640442
F1.2164368629455566
F1.3343855142593384
F1.2878968715667725
F1.1890134811401367
F1.3009920120239258
F1.4270601272583008
F1.320753812789917
F1.2521718740463257
F1.2012524604797363
F1.2537195682525635
F1.3526957035064697
F1.2781484127044678
F1.1794414520263672
F1.4988499879837036
F1.4681800603866577
F1.4603924751281738
F1.3360319137573242
F1.5309866666793823
F1.6021307706832886
F1.6769343614578247
Fnan
F1.637395977973938
F1.8763489723205566
Fnan
F1.8371775150299072
F1.8795949220657349
F1.9338866472244263
F1.7509980201721191
F2.143338203430176
F1.799403190612793
F2.175483465194702
F2.122769594192505
F2.2181622982025146
F2.375816822052002
F2.4599454402923584
F2.609877824783325
F2.818936347961426
F2.9723567962646484
F3.193535089492798
F3.106508731842041
F3.4279491901397705
F3.7049384117126465
F3.8646254539489746
F3.9447038173675537
tp36
aa(lp37
F-0.7853981633974483
aF1.0
a(lp38
F-5.288586464916027
aF-6.702538020462548
aF-0.0011309938865544378
aa(lp39
F-0.0014686835850693252
aF-0.0037186551289551915
aF-0.38275986830926806
aF0.9238392164139984
aa(Fnan
Fnan
Fnan
Fnan
Fnan
Fnan
Fnan
Fnan
Fnan
Fnan
Fnan
Fnan
Fnan
Fnan
Fnan
Fnan
Fnan
Fnan
Fnan
Fnan
F0.5754554867744446
F0.551414966583252
F0.43746867775917053
F0.6104292273521423
F0.5705750584602356
F0.5149707794189453
F0.45563822984695435
F0.4296714961528778
F0.3712162673473358
F0.47319963574409485
Fnan
F0.44950810074806213
F0.46662378311157227
Fnan
F0.704543948173523
F0.9080783128738403
F0.7729821801185608
F0.6494182348251343
F0.5403062701225281
F0.7358392477035522
F0.6713128089904785
F0.8104289770126343
F0.6448109149932861
F0.8108870983123779
F0.7622583508491516
F0.8342195153236389
F0.9280321002006531
F0.8140853047370911
F1.032363772392273
F0.9853782057762146
F1.315915822982788
F1.23250412940979
F1.4150052070617676
F1.4379019737243652
tp40
aa(lp41
I0
aF0.0
a(lp42
F-5.288086060074984
aF-6.702115411183242
aF-0.001130717628189809
aa(lp43
F2.5701218611690707e-05
aF-0.003998404068156296
aF-5.6329846165515316e-05
aF0.9999920044336873
aa(F0.6634137034416199
F0.5753467679023743
F0.5205090045928955
F0.6874063014984131
F0.6241822838783264
F0.6346524953842163
F0.6843003034591675
F0.6896620988845825
F0.9056407809257507
F0.946756899356842
F0.9236013889312744
F1.0758403539657593
F1.0920710563659668
F1.1552338600158691
F1.1856685876846313
F1.394308090209961
F1.2419816255569458
F1.593811273574829
F1.8189901113510132
F2.098727226257324
F2.2116594314575195
F2.6167454719543457
F3.17025089263916
F4.207502841949463
Fnan
Fnan
Fnan
Fnan
Fnan
Fnan
Fnan
Fnan
Fnan
Fnan
Fnan
Fnan
Fnan
Fnan
Fnan
Fnan
Fnan
Fnan
Fnan
Fnan
F4.86294412612915
F4.8614182472229
F4.552102088928223
F4.2075958251953125
F4.251969337463379
F4.086921691894531
F3.764585494995117
F3.5734524726867676
F3.7183640003204346
F3.2761785984039307
tp44
aa(lp45
I0
aF1.0
a(lp46
F-4.288054366903459
aF-6.701711977508494
aF-0.0011307348133847983
aa(lp47
F2.8840082662107338e-05
aF-0.0039985591737619905
aF-0.00017270281004047686
aF0.9999919904011847
aa(F0.765087366104126
F0.5555382370948792
F0.7153504490852356
F0.6752275228500366
F0.6772933602333069
F0.8700191974639893
F0.8013603091239929
F0.9508281946182251
F0.8093880414962769
F0.8379766345024109
F0.7250421643257141
F1.0250601768493652
F1.1814451217651367
F0.9915124773979187
F1.4323866367340088
F1.2676000595092773
F1.408813714981079
F1.5420643091201782
F1.5799731016159058
F1.9643833637237549
F2.2380082607269287
F2.8115198612213135
F3.3718862533569336
F4.214293003082275
Fnan
Fnan
Fnan
Fnan
Fnan
Fnan
Fnan
Fnan
Fnan
Fnan
Fnan
Fnan
Fnan
Fnan
Fnan
Fnan
Fnan
Fnan
Fnan
Fnan
F5.063749313354492
F4.7388529777526855
F4.397599220275879
F4.553072452545166
F4.156102657318115
F3.954793930053711
F3.9668753147125244
F3.7936513423919678
F3.672711133956909
F3.516955614089966
tp48
aa(lp49
I0
aF1.0
a(lp50
F-3.288032470878956
aF-6.701454511508419
aF-0.0011307596876795056
aa(lp51
F2.5171183422674598e-05
aF-0.003998487540419525
aF-9.677321916138379e-05
aF0.9999920010173804
aa(F0.623129665851593
F0.636705756187439
F0.6061196327209473
F0.7019820809364319
F0.8187081813812256
F0.6410726308822632
F0.9543554186820984
F0.9516243934631348
F0.7137271165847778
F0.9800763130187988
F1.0881669521331787
F1.0033046007156372
F0.9151082038879395
F1.184800386428833
F1.1221290826797485
F1.3546391725540161
F1.4190806150436401
F1.602351427078247
F1.6125755310058594
F1.8942406177520752
F2.2829065322875977
F2.8095815181732178
F3.2609140872955322
F4.08676815032959
Fnan
Fnan
Fnan
Fnan
Fnan
Fnan
Fnan
Fnan
Fnan
Fnan
Fnan
Fnan
Fnan
Fnan
Fnan
Fnan
Fnan
Fnan
Fnan
Fnan
Fnan
F4.916355133056641
F4.453127384185791
F4.337087631225586
F4.340878963470459
F3.936645984649658
F3.8603708744049072
F3.6501243114471436
F3.585493564605713
F3.499136447906494
tp52
aa(lp53
I0
aF0.0
a(lp54
F-3.2879191967368984
aF-6.700332077080521
aF-0.0011307359779374748
aa(lp55
F3.012836670857625e-05
aF-0.0039985620068234435
aF-0.00019580000884231993
aF0.9999919860961466
aa(F0.4508160650730133
F0.7030386924743652
F0.6788894534111023
F0.7569056749343872
F0.6609337329864502
F0.8037378787994385
F0.6586199998855591
F0.6899955868721008
F1.0072174072265625
F1.1073063611984253
F0.8017877340316772
F0.8075054883956909
F1.2462255954742432
F1.0521345138549805
F1.2432825565338135
F1.3688122034072876
F1.3040807247161865
F1.551986575126648
F1.6901925802230835
F2.014878511428833
F2.4870715141296387
F2.7562026977539062
F3.3532280921936035
F4.033932209014893
Fnan
Fnan
Fnan
Fnan
Fnan
Fnan
Fnan
Fnan
Fnan
Fnan
Fnan
Fnan
Fnan
Fnan
Fnan
Fnan
Fnan
Fnan
Fnan
Fnan
Fnan
F4.805708885192871
F4.538732051849365
F4.51082706451416
F4.035655498504639
F4.094935417175293
F3.768840789794922
F3.8491945266723633
F3.559727191925049
F3.2623581886291504
tp56
aa.