(lp0
(lp1
F0.7853981633974483
aF0.0
a(lp2
F6.000495973401816
aF1.0077965025534412
aF-0.0011309908695348037
aa(lp3
F0.0015437553240127688
aF-0.0036875491792345517
aF0.38262677260021716
aF0.9238943509352637
aa(F2.1863882541656494
F2.102562189102173
F2.268462657928467
F2.1474978923797607
F2.1319961547851562
F2.2443530559539795
F2.174978733062744
F2.134854793548584
F2.2124290466308594
F2.469588041305542
F2.371119976043701
F2.1664745807647705
F2.178232192993164
F2.6577348709106445
F2.3140735626220703
F2.3181397914886475
F2.432558536529541
F2.37532901763916
F2.454807996749878
F2.603936195373535
F2.620199203491211
F2.6658384799957275
F2.6787588596343994
F2.917372703552246
F2.7289538383483887
F2.7109227180480957
F2.9160704612731934
F2.884453773498535
F2.93983793258667
F3.2528178691864014
Fnan
F3.1309638023376465
F3.4157001972198486
Fnan
F3.436262845993042
F3.5394134521484375
F3.553222417831421
F3.6659295558929443
F3.774510145187378
F4.00461483001709
F4.165646553039551
F4.211956977844238
F4.528890132904053
F4.665046215057373
F4.820803642272949
F5.119426250457764
F5.23717737197876
Fnan
Fnan
Fnan
Fnan
Fnan
Fnan
Fnan
tp4
aa(lp5
F0.7853981633974483
aF1.0
a(lp6
F6.707458276143961
aF1.7150723826343648
aF-0.00113076618574251
aa(lp7
F0.0015526300573632191
aF-0.003684776272760583
aF0.3826173756432348
aF0.9238982387793628
aa(F1.4614815711975098
F1.503991961479187
F1.5729020833969116
F1.4129127264022827
F1.5758798122406006
F1.671962022781372
F1.3701401948928833
F1.3631045818328857
F1.6585376262664795
F1.5506047010421753
F1.4944485425949097
F1.4862555265426636
F1.5863733291625977
F1.5616353750228882
F1.4175115823745728
F1.762092113494873
F1.6561555862426758
F1.72251558303833
F1.475414752960205
F1.5988401174545288
F1.509026288986206
F1.7027766704559326
F1.8122503757476807
F1.7646815776824951
F1.7792888879776
F1.858372449874878
F1.9171340465545654
F2.0626869201660156
F1.897337794303894
F1.9080950021743774
Fnan
F2.0816354751586914
F2.146235704421997
Fnan
F2.2249112129211426
F2.26016902923584
F2.4007112979888916
F2.586911678314209
F2.5718889236450195
F2.584287643432617
F2.8539907932281494
F2.829223155975342
F2.8267910480499268
F3.0903806686401367
F3.1211931705474854
F3.1918654441833496
F3.417860746383667
F3.6046676635742188
F3.823472261428833
F3.885429859161377
F4.1525726318359375
F4.487301826477051
F4.772275924682617
F5.018020153045654
tp8
aa(lp9
F0.7853981633974483
aF1.0
a(lp10
F7.414162058097967
aF2.422659633547613
aF-0.0011307605555158362
aa(lp11
F0.0015519699249456967
aF-0.0036850825682042793
aF0.3825255311260825
aF0.9239362692266855
aa(F0.6048356890678406
F0.7638455033302307
F0.6528971195220947
F0.5537081956863403
F0.8040462136268616
F0.8421401977539062
F0.7119740843772888
F0.7340473532676697
F0.6371147036552429
F0.5861326456069946
F0.6006841659545898
F0.7802632451057434
F0.893527090549469
F0.8066818118095398
F0.7074316143989563
F0.6862297654151917
F0.7175103425979614
F0.8474295735359192
F0.8401537537574768
F0.9552050232887268
F0.8282925486564636
F0.7131743431091309
F0.6859897375106812
F0.6864341497421265
F0.7859042882919312
F0.8619528412818909
F0.7708544135093689
F0.9019994735717773
F0.9199549555778503
F0.7722299098968506
Fnan
F0.8888574838638306
F1.060502529144287
Fnan
F1.1865200996398926
F1.046883225440979
F1.1338608264923096
F1.2279620170593262
F1.1747965812683105
F1.3188178539276123
F1.3152631521224976
F1.3808354139328003
F1.4036930799484253
F1.4624645709991455
F1.4234694242477417
F1.6677628755569458
F1.5562576055526733
F1.7550503015518188
F1.8604131937026978
F1.8911869525909424
F2.024099349975586
F2.076606273651123
F2.475081205368042
F2.3981235027313232
tp12
aa(lp13
F1.5707963267948966
aF0.0
a(lp14
F7.4139045532778125
aF2.4229514997719486
aF-0.001130990926515918
aa(lp15
F0.0028425529204767217
aF-0.0028109397620458103
aF0.7070401877454121
aF0.707162068710901
aa(F1.3098715543746948
F1.2546206712722778
F1.2513576745986938
F1.2339404821395874
F1.2442436218261719
F1.412124514579773
F1.3997694253921509
F1.4212262630462646
F1.4886491298675537
F1.5722217559814453
F1.942346453666687
F1.9539024829864502
F2.03170108795166
F2.2284491062164307
F2.3704700469970703
F2.6036911010742188
F2.8681206703186035
F3.1527252197265625
F3.50944447517395
F3.8592612743377686
F4.382838249206543
Fnan
Fnan
Fnan
Fnan
Fnan
Fnan
Fnan
Fnan
Fnan
Fnan
Fnan
Fnan
Fnan
F3.7678020000457764
F3.565690279006958
F3.585536479949951
F3.5614984035491943
F3.900538444519043
F3.5205211639404297
F3.5928549766540527
F3.700385093688965
F3.636260986328125
F3.5991227626800537
F3.770537853240967
F3.509559392929077
F3.61484432220459
F3.8341686725616455
F3.4856982231140137
F3.7726781368255615
F3.674484968185425
F3.7501282691955566
F2.9775407314300537
F2.975949764251709
tp16
aa(lp17
F1.5707963267948966
aF1.0
a(lp18
F7.413675878537139
aF3.4229726288224605
aF-0.0011307528712931059
aa(lp19
F0.0028449183099813163
aF-0.002809811411579626
aF0.7069763211141197
aF0.7072259135407768
aa(F1.1372179985046387
F1.3231080770492554
F1.3336151838302612
F1.332533836364746
F1.3654627799987793
F1.4829940795898438
F1.4851984977722168
F1.5616589784622192
F1.6152212619781494
F1.8364901542663574
F1.7257226705551147
F1.9901764392852783
F1.9054899215698242
F2.2500405311584473
F2.3592262268066406
F2.65486741065979
F2.630805492401123
F3.171581506729126
F3.522831678390503
F3.836738109588623
F4.442224979400635
F4.588641166687012
F4.7723517417907715
F4.738897323608398
F4.750021457672119
F4.620882034301758
F4.610573768615723
F4.817364692687988
F4.635210990905762
F4.617335796356201
Fnan
F4.771612167358398
F4.609269142150879
Fnan
F4.597603797912598
F2.6193180084228516
F2.5725409984588623
F2.805872917175293
F2.7368078231811523
F2.6644208431243896
F2.6385231018066406
F2.6744167804718018
F2.5891315937042236
F2.8557534217834473
F2.498276710510254
F2.6283020973205566
F2.7636632919311523
F2.4397125244140625
F2.5132806301116943
F2.6673920154571533
F2.749757766723633
F2.6668171882629395
F2.806981325149536
F2.7452468872070312
tp20
aa(lp21
F1.5707963267948966
aF1.0
a(lp22
F7.413570862631612
aF4.422981033382214
aF-0.0011309910240033527
aa(lp23
F0.002845778801803264
aF-0.0028077349164747573
aF0.70669705971318
aF0.707504970979283
aa(F1.207576036453247
F1.1480746269226074
F1.2955702543258667
F1.236872673034668
F1.3552837371826172
F1.4449445009231567
F1.386223316192627
F1.7509942054748535
F1.6007378101348877
F1.72177255153656
F1.836254358291626
F1.9382532835006714
F2.0846059322357178
F2.2332842350006104
F2.464242458343506
F2.5645461082458496
F2.8087007999420166
F2.9670250415802
F3.4503166675567627
F3.849613904953003
F3.7854161262512207
F3.5870606899261475
F3.738166093826294
F3.67092227935791
F3.585047721862793
F3.378580093383789
F3.7736423015594482
F3.791203260421753
F3.7138092517852783
F3.6261868476867676
Fnan
F3.6740143299102783
F3.8198115825653076
Fnan
F3.896423578262329
F3.6904232501983643
F3.9577693939208984
F3.6145660877227783
F3.9168708324432373
F3.78007435798645
F1.5584245920181274
F1.6351048946380615
F1.6192715167999268
F1.8000543117523193
F1.9411078691482544
F1.689152479171753
F1.643328309059143
F1.8058720827102661
F1.7278498411178589
F1.7940196990966797
F1.7267526388168335
F1.4935758113861084
F1.9405906200408936
F1.666263461112976
tp24
aa(lp25
F1.5707963267948966
aF1.0
a(lp26
F7.413459664754113
aF5.422990459058322
aF-0.0011307490118663277
aa(lp27
F0.0028469374755629175
aF-0.00280780601468682
aF0.7071600813692408
aF0.7070421702347344
aa(F1.2145071029663086
F1.2530677318572998
F1.5181752443313599
F1.3342796564102173
F1.3133684396743774
F1.4461065530776978
F1.5503026247024536
F1.5682425498962402
F1.5533794164657593
F1.6608103513717651
F1.8055623769760132
F2.0906026363372803
F2.0822620391845703
F1.9763962030410767
F2.3697290420532227
F2.613717794418335
F2.8004209995269775
F2.780019760131836
F2.777195692062378
F2.69976544380188
F2.6761696338653564
F2.658703088760376
F2.6672890186309814
F2.7795891761779785
F2.5547521114349365
F2.713033676147461
F2.9234769344329834
F2.633167266845703
F2.6183645725250244
F2.73018217086792
Fnan
F2.710413932800293
F2.7766940593719482
Fnan
F2.8367652893066406
F2.7632412910461426
F2.923612356185913
F2.677818775177002
F2.734515905380249
F2.7728121280670166
F2.7468056678771973
F2.611170768737793
F2.9214553833007812
F2.806119918823242
F2.838984966278076
F2.7269883155822754
F2.9019951820373535
F2.8307130336761475
F2.932086229324341
F2.9539849758148193
F3.0636649131774902
F3.089933395385742
F2.9155585765838623
F3.0710928440093994
tp28
aa(lp29
F1.5707963267948966
aF1.0
a(lp30
F7.412920260157754
aF6.423041846143221
aF-0.001130736473766325
aa(lp31
F0.002848394706405492
aF-0.0028063772092533517
aF0.7074613078380073
aF0.7067407649249422
aa(F1.2295981645584106
F1.2260141372680664
F1.3380521535873413
F1.2777215242385864
F1.3935885429382324
F1.5076982975006104
F1.3654767274856567
F1.5636444091796875
F1.5264836549758911
F1.7938194274902344
F1.5641711950302124
F1.741415023803711
F1.7315032482147217
F1.6952545642852783
F1.7555981874465942
F1.7285971641540527
F1.6588079929351807
F1.7797765731811523
F1.5888710021972656
F1.6940337419509888
F1.8080015182495117
F1.7247956991195679
F1.6281872987747192
F1.5291335582733154
F1.7830501794815063
F1.9815746545791626
F1.6079788208007812
F1.5278815031051636
F1.6894545555114746
F1.7875603437423706
Fnan
F1.7080937623977661
F1.7711001634597778
Fnan
F1.5801403522491455
F1.8218556642532349
F1.7610077857971191
F1.7203712463378906
F1.7697348594665527
F1.508847713470459
F1.611401081085205
F1.6593562364578247
F1.860295295715332
F1.8792036771774292
F1.783767580986023
F1.9351025819778442
F1.5395996570587158
F1.643067479133606
F1.9539610147476196
F1.6579409837722778
F1.721724271774292
F1.7965710163116455
F1.871915578842163
F1.9076151847839355
tp32
aa(lp33
F1.5707963267948966
aF1.0
a(lp34
F7.412568971395362
aF7.4230765551201126
aF-0.0011307418704564476
aa(lp35
F0.0028385850112468518
aF-0.0028159318024586926
aF0.7074695460879512
aF0.7067325196432709
aa(F0.846051037311554
F0.6806250214576721
F0.7444866895675659
F0.7251940369606018
F0.7059012651443481
F0.7524954676628113
F0.750289261341095
F0.6604534387588501
F0.7727259397506714
F0.8542149066925049
F0.7951482534408569
F0.6283040642738342
F0.6320825815200806
F0.7794700264930725
F0.6775697469711304
F0.7579917311668396
F0.5951745510101318
F0.3893738389015198
F0.6976222395896912
F0.6649542450904846
F0.7886922359466553
F0.7103297710418701
F0.710090696811676
F0.7145430445671082
F0.5393509864807129
F0.6928200721740723
F0.688576877117157
F0.7674107551574707
F0.8242374062538147
F0.7737706899642944
Fnan
F0.702264666557312
F0.8035789132118225
Fnan
F0.6656033396720886
F0.7013671398162842
F0.6141303777694702
F0.6775678396224976
F0.9880715012550354
F0.5729312896728516
F0.7206141948699951
F0.7798392176628113
F0.6913825273513794
F0.550379753112793
F0.8698405623435974
F0.5441619157791138
F0.6921815276145935
F0.6670190095901489
F0.7380490899085999
F0.6728918552398682
F0.6827194094657898
F0.8147143125534058
F0.7025590538978577
F0.5981014370918274
tp36
aa(lp37
F-3.141592653589793
aF0.0
a(lp38
F7.410246292019812
aF7.423286945410691
aF-0.0011307638649226681
aa(lp39
F-0.003998472664997176
aF-3.5922740744503157e-05
aF-0.999992003342111
aF-6.463540512181804e-05
aa(F1.2898244857788086
F1.1874370574951172
F1.382081151008606
F1.2040622234344482
F1.4717549085617065
F1.51747727394104
F1.6328927278518677
F1.4537806510925293
F1.8047043085098267
F1.548486351966858
F1.7474745512008667
F1.7263166904449463
F2.0436370372772217
F2.073486566543579
F2.19575572013855
F2.614830255508423
F2.840355157852173
F3.0618326663970947
F3.353178024291992
F3.776561737060547
F4.449334144592285
Fnan
Fnan
Fnan
Fnan
Fnan
Fnan
Fnan
Fnan
Fnan
Fnan
Fnan
Fnan
Fnan
F3.482295036315918
F3.3103513717651367
F3.1344127655029297
F3.0935044288635254
F2.8417036533355713
F2.759054183959961
F2.654733180999756
F2.7660863399505615
F2.6161391735076904
F2.5639331340789795
F2.3147873878479004
F2.292311668395996
F2.261155366897583
F2.2601230144500732
F2.2904646396636963
F2.112884998321533
F2.150595188140869
F2.10017466545105
F2.0358848571777344
F2.1074845790863037
tp40
aa(lp41
F-3.141592653589793
aF1.0
a(lp42
F6.4102272731769
aF7.423053803203358
aF-0.0011307593822139361
aa(lp43
F-0.003998488444262877
aF-2.2401056512551936e-05
aF-0.999991990018964
aF-0.00017744369866607142
aa(F1.123560905456543
F1.2657558917999268
F1.2172205448150635
F1.2676823139190674
F1.141161322593689
F1.260982871055603
F1.393568515777588
F1.573918342590332
F1.5347914695739746
F1.6298725605010986
F1.6978250741958618
F1.9377659559249878
F1.9203602075576782
F2.211711883544922
F2.5823183059692383
F2.431704044342041
F2.6771228313446045
F3.1092796325683594
F3.2624313831329346
F3.8809821605682373
F4.597226619720459
Fnan
Fnan
Fnan
Fnan
Fnan
Fnan
Fnan
Fnan
Fnan
Fnan
Fnan
Fnan
Fnan
Fnan
Fnan
F2.48109769821167
F2.3253657817840576
F2.045535087585449
F2.167581796646118
F2.171234369277954
F2.13525128364563
F1.9868948459625244
F1.9347940683364868
F1.9713398218154907
F1.9147698879241943
F1.7980445623397827
F1.8515909910202026
F1.7622946500778198
F1.7162623405456543
F1.764673113822937
F1.7262340784072876
F1.6642652750015259
F1.6608660221099854
tp44
aa(lp45
F-3.141592653589793
aF0.0
a(lp46
F6.410192546951687
aF7.422714659055037
aF-0.001130759323687447
aa(lp47
F-0.0039984644359780715
aF-4.0377642220596354e-05
aF-0.9999919903811424
aF-0.0001727002075928117
aa(F0.9955280423164368
F1.0596612691879272
F1.0743097066879272
F1.312674880027771
F1.4550960063934326
F1.415069341659546
F1.4459251165390015
F1.514734148979187
F1.6023187637329102
F1.7535557746887207
F1.8916171789169312
F1.864336371421814
F2.1290221214294434
F2.2539174556732178
F2.3189334869384766
F2.5459113121032715
F2.6635046005249023
F3.0254735946655273
F3.4262712001800537
F3.989150047302246
F4.5195441246032715
Fnan
Fnan
Fnan
Fnan
Fnan
Fnan
Fnan
Fnan
Fnan
Fnan
Fnan
Fnan
Fnan
Fnan
Fnan
F2.4928526878356934
F2.315033435821533
F2.301888942718506
F2.221733331680298
F2.0423548221588135
F2.20593523979187
F1.9248994588851929
F2.134784698486328
F1.9522427320480347
F1.982471227645874
F1.841572880744934
F1.76552414894104
F1.7495875358581543
F1.748028039932251
F1.744458556175232
F1.606000542640686
F1.703365683555603
F1.6556576490402222
tp48
aa.