(lp0
(lp1
F0.0
aF1.414
a(lp2
F7.414084849490463
aF1.004080454909596
aF-0.0011309920295957954
aa(lp3
F4.043692822080079e-05
aF-0.003997645955254232
aF-0.0005772055317952986
aF0.9999918419794461
aa(F3.2476541996002197
F2.9828803539276123
F2.9439101219177246
F3.011491537094116
F2.9996345043182373
F3.105407238006592
F2.957882881164551
F2.8383677005767822
F2.9183766841888428
F2.785553216934204
F2.7668421268463135
F2.8219451904296875
F2.780980348587036
F2.913825273513794
F2.8332836627960205
F2.8020901679992676
F2.5765469074249268
F2.902512788772583
F2.748026132583618
F2.8311707973480225
F2.5927164554595947
F2.9743010997772217
F2.697457790374756
F2.7475333213806152
F2.751720905303955
F2.6466715335845947
F2.6174609661102295
F2.5855796337127686
F2.69771146774292
F2.756589412689209
Fnan
F2.714157819747925
F2.882819652557373
Fnan
F2.7117817401885986
F2.600969076156616
F2.720804452896118
F2.710993528366089
F2.5620269775390625
F2.812309980392456
F2.796923875808716
F2.5138871669769287
F2.8103222846984863
F2.8002686500549316
F2.8602209091186523
F2.7202486991882324
F2.585768461227417
F2.3771591186523438
F2.3661890029907227
F2.0044610500335693
F1.802554726600647
F2.0261528491973877
F1.7915723323822021
F1.5652698278427124
tp4
aa(lp5
F0.0
aF1.414
a(lp6
F8.828101379379302
aF1.0042605111753151
aF-0.0011311844179815733
aa(lp7
F8.508657675491994e-05
aF-0.003998172842049208
aF-7.2471643959025e-05
aF0.9999920010290384
aa(F1.524329423904419
F1.575806975364685
F1.4983426332473755
F1.393762230873108
F1.3949593305587769
F1.4525169134140015
F1.1778758764266968
F1.2671658992767334
F1.3115226030349731
F1.3057717084884644
F1.2452105283737183
F1.3643099069595337
F1.2607547044754028
F1.4071873426437378
F1.3729863166809082
F1.4581923484802246
F1.2446962594985962
F1.3384485244750977
F1.361985683441162
F1.386352300643921
F1.2036571502685547
F1.336929202079773
F1.3106274604797363
F1.297007441520691
F1.2677791118621826
F1.3298958539962769
F1.417595624923706
F1.2153246402740479
F1.156294822692871
F1.1896569728851318
Fnan
F1.162200689315796
F1.355307936668396
Fnan
F1.1950123310089111
F1.2508853673934937
F1.255054235458374
F1.3233757019042969
F1.2903826236724854
F1.1109027862548828
F1.4210113286972046
F1.3837250471115112
F1.3269166946411133
F1.214448094367981
F1.30116605758667
F1.2821190357208252
F1.5225821733474731
F1.4125128984451294
F1.3847123384475708
F1.3238835334777832
F1.3649613857269287
F1.3755595684051514
F1.5640959739685059
F1.4033726453781128
tp8
aa(lp9
F-0.7853981633974483
aF0.0
a(lp10
F8.828295693656322
aF1.0060459223521203
aF-0.0011307427993529906
aa(lp11
F-0.001481407997984587
aF-0.003714246027369424
aF-0.3827634134236091
aF0.9238377450348622
aa(F4.722555637359619
F4.380098819732666
F4.11133337020874
F3.8621106147766113
F3.7621078491210938
F3.5557126998901367
F3.3158867359161377
F3.0511021614074707
F3.0067222118377686
F2.975128173828125
F2.8232550621032715
F2.716463804244995
F2.4144203662872314
F2.515756368637085
F2.5336174964904785
F2.4809439182281494
F2.4094433784484863
F2.173095464706421
F2.1331982612609863
F2.0604002475738525
F1.9268450736999512
F2.044965982437134
F1.9527645111083984
F2.0430214405059814
F1.7353665828704834
F1.6867507696151733
F1.7863234281539917
F1.8428030014038086
F1.729127049446106
F1.5870307683944702
Fnan
F1.403625726699829
F1.7058347463607788
Fnan
F1.484268069267273
F1.5857295989990234
F1.4923121929168701
F1.584537148475647
F1.2893683910369873
F1.5078020095825195
F1.2902843952178955
F1.284951090812683
F1.502228021621704
F1.378610372543335
F1.655558705329895
F1.316738486289978
F1.3654252290725708
F1.415315866470337
F1.3613109588623047
F1.2123249769210815
F1.1155399084091187
F1.0173829793930054
F1.3349977731704712
F1.258461833000183
tp12
aa(lp13
F-0.7853981633974483
aF1.0
a(lp14
F9.535537501813609
aF0.2990477588116204
aF-0.001131115960776058
aa(lp15
F-0.0015494026556477692
aF-0.003685701639002241
aF-0.38219199284506294
aF0.9240742911476103
aa(F2.029020309448242
F1.8519960641860962
F1.8928724527359009
F1.8107378482818604
F1.579171061515808
F1.5349329710006714
F1.5023490190505981
F1.3480886220932007
F1.2710720300674438
F1.3474256992340088
F1.0781158208847046
F1.1715701818466187
F1.1376497745513916
F1.1878409385681152
F1.0617254972457886
F0.8828284740447998
F1.275763750076294
F1.1275132894515991
F0.9781595468521118
F0.9836944341659546
F0.7874404191970825
F0.9071798920631409
F0.8150219917297363
F0.6987419128417969
F0.8757332563400269
F0.5777781009674072
F0.7756213545799255
F0.7962706685066223
F0.6953826546669006
F0.8176507949829102
Fnan
F0.5415218472480774
F0.5547052621841431
Fnan
F0.7497375011444092
F0.5343728065490723
F0.6521550416946411
F0.6830131411552429
F0.5188014507293701
F0.6873396039009094
F0.49756181240081787
F0.37774279713630676
F0.5900630950927734
F0.45610523223876953
F0.4501686692237854
F0.5724495053291321
F0.42943742871284485
F0.49198704957962036
F0.617099940776825
F0.5029538869857788
F0.43040600419044495
F0.3706444501876831
F0.4480030834674835
F0.5609779357910156
tp16
aa(lp17
F-1.5707963267948966
aF0.0
a(lp18
F9.535966405820586
aF0.29938209602288096
aF-0.0011307741354177059
aa(lp19
F-0.0028171540123695282
aF-0.0028374966620045693
aF-0.7065811023332832
aF0.7076207727882542
aa(F2.867945909500122
F2.6099352836608887
F2.6833808422088623
F2.6692261695861816
F2.6054136753082275
F2.7128357887268066
F2.4544200897216797
F2.4068245887756348
F2.5757267475128174
F2.7092092037200928
F2.7985122203826904
F2.3438005447387695
F2.412151336669922
F2.4496819972991943
F2.3273823261260986
F2.445880889892578
F2.569080114364624
F2.8156397342681885
F3.105856418609619
F3.5663459300994873
F4.153598785400391
F5.025001525878906
Fnan
Fnan
Fnan
Fnan
Fnan
Fnan
Fnan
Fnan
Fnan
Fnan
F4.266372203826904
Fnan
F3.1805832386016846
F2.828253984451294
F2.5336830615997314
F2.2364346981048584
F2.0747289657592773
F1.8428815603256226
F1.970276951789856
F1.6115446090698242
F1.5674238204956055
F1.4247934818267822
F1.3263951539993286
F1.2390620708465576
F1.2116872072219849
F1.1048725843429565
F0.9708189964294434
F1.049505591392517
F1.0633773803710938
F1.1343872547149658
F1.0872247219085693
F0.9479475617408752
tp20
aa(lp21
F-1.5707963267948966
aF1.0
a(lp22
F9.536208422247528
aF-0.7006355190344163
aF-0.001130741164604404
aa(lp23
F-0.0028237401746387817
aF-0.0028309969983552072
aF-0.7071478882929335
aF0.7070543656822057
aa(F1.5051831007003784
F1.7308635711669922
F1.7341704368591309
F1.5620753765106201
F1.4246411323547363
F1.6522855758666992
F1.618619680404663
F1.4160549640655518
F1.4884685277938843
F1.4673800468444824
F1.540521264076233
F1.7929607629776
F1.8139095306396484
F1.9874160289764404
F2.286477565765381
F2.500148296356201
F2.5228111743927
F2.9533371925354004
F3.2125775814056396
F3.6670970916748047
F4.128172397613525
F5.052165508270264
Fnan
Fnan
Fnan
Fnan
Fnan
Fnan
Fnan
Fnan
Fnan
Fnan
F4.565962791442871
Fnan
F3.20908260345459
F2.8400232791900635
F2.556056022644043
F2.06966233253479
F2.2154700756073
F1.888069987297058
F1.8199737071990967
F1.6118206977844238
F1.7145309448242188
F1.4259337186813354
F1.4886748790740967
F1.2120625972747803
F1.2828596830368042
F1.0357472896575928
F1.2188043594360352
F1.2468746900558472
F0.9156060814857483
F0.9892584085464478
F1.1192876100540161
F1.020444631576538
tp24
aa(lp25
F-1.5707963267948966
aF1.0
a(lp26
F9.536280603246984
aF-1.7006423205179928
aF-0.0011305532156296871
aa(lp27
F-0.002847064105219862
aF-0.0028069258953882063
aF-0.706725030270394
aF0.7074770292965767
aa(F1.0458309650421143
F1.1175488233566284
F1.1997524499893188
F1.2918875217437744
F1.2004927396774292
F1.3758915662765503
F1.1824939250946045
F1.4690921306610107
F1.5597591400146484
F1.59755539894104
F1.8957982063293457
F1.6342004537582397
F1.8021080493927002
F1.851349949836731
F2.1554198265075684
F2.545966386795044
F2.5724568367004395
F2.861107349395752
F3.2848525047302246
F3.539222478866577
F3.9770281314849854
F4.7329487800598145
Fnan
Fnan
Fnan
Fnan
Fnan
Fnan
Fnan
Fnan
Fnan
Fnan
F4.335102081298828
Fnan
F3.3124840259552
F2.692256450653076
F2.5860655307769775
F2.3804192543029785
F2.215477705001831
F1.9270175695419312
F1.9482715129852295
F1.7698237895965576
F1.7248517274856567
F1.636643886566162
F1.3479598760604858
F1.3096901178359985
F1.2305046319961548
F1.1812032461166382
F1.097522258758545
F1.0762659311294556
F1.017570972442627
F1.2220627069473267
F1.0934244394302368
F0.7876717448234558
tp28
aa(lp29
F-1.5707963267948966
aF1.0
a(lp30
F9.536393102286272
aF-2.7006492141379255
aF-0.0011305921079864667
aa(lp31
F-0.0027802676656377956
aF-0.002873654151115153
aF-0.7072461512880428
aF0.7069560762252336
aa(F1.3354765176773071
F1.0634655952453613
F1.1260221004486084
F1.2460304498672485
F1.2716624736785889
F1.1411036252975464
F1.32125723361969
F1.4528218507766724
F1.4006409645080566
F1.8242418766021729
F1.671622633934021
F1.796422004699707
F1.9226256608963013
F2.0419740676879883
F2.1838841438293457
F2.3994600772857666
F2.477998971939087
F3.0230517387390137
F3.114102363586426
F3.5148873329162598
F4.0693769454956055
F4.880335807800293
Fnan
Fnan
Fnan
Fnan
Fnan
Fnan
Fnan
Fnan
Fnan
Fnan
F4.478355407714844
Fnan
F3.1582400798797607
F2.8021109104156494
F2.361016273498535
F2.2326743602752686
F1.9914748668670654
F1.734773874282837
F1.7956902980804443
F1.62977933883667
F1.6351250410079956
F1.4471094608306885
F1.3869554996490479
F1.2700711488723755
F1.3409343957901
F1.2441575527191162
F1.0998787879943848
F1.1191409826278687
F1.0845119953155518
F0.8157113790512085
F0.9856714010238647
F1.1130993366241455
tp32
aa(lp33
F-1.5707963267948966
aF1.0
a(lp34
F9.536480825238876
aF-3.7006580567857297
aF-0.0011307438062558017
aa(lp35
F-0.002788061630084699
aF-0.002866516732530249
aF-0.7067271227865631
aF0.7074749350415144
aa(F1.255453109741211
F1.12308931350708
F1.0262013673782349
F1.1037709712982178
F1.3444712162017822
F1.272002935409546
F1.444485068321228
F1.379897952079773
F1.3997193574905396
F1.5940754413604736
F1.8201875686645508
F1.7583506107330322
F1.9359544515609741
F2.125075578689575
F2.154970645904541
F2.276559352874756
F2.4846153259277344
F2.801398754119873
F3.2394373416900635
F3.5594704151153564
F4.289194583892822
Fnan
Fnan
Fnan
Fnan
Fnan
Fnan
Fnan
Fnan
Fnan
Fnan
Fnan
F4.594162940979004
Fnan
F3.1381351947784424
F2.726330280303955
F2.4702563285827637
F2.3408751487731934
F2.124001979827881
F2.0740880966186523
F1.6993412971496582
F1.748494267463684
F1.6520613431930542
F1.534543752670288
F1.4270401000976562
F1.5127567052841187
F1.0787322521209717
F1.1157898902893066
F1.210363745689392
F1.0925633907318115
F0.9678366184234619
F0.9396489262580872
F0.9188871383666992
F1.0058116912841797
tp36
aa(lp37
F-1.5707963267948966
aF1.0
a(lp38
F9.53652489403013
aF-4.70066352768455
aF-0.001130724453882459
aa(lp39
F-0.0028110105312147003
aF-0.0028435414231607727
aF-0.7072462844127269
aF0.7069559432357584
aa(F1.005855917930603
F1.025079369544983
F1.0962427854537964
F1.3739073276519775
F1.1384477615356445
F1.3665921688079834
F1.392344355583191
F1.4308284521102905
F1.334213137626648
F1.6897224187850952
F1.6902849674224854
F1.8394750356674194
F1.8492746353149414
F1.9222712516784668
F2.389498233795166
F2.414395809173584
F2.666584014892578
F2.9482247829437256
F3.0577757358551025
F4.501622200012207
F4.400494575500488
F4.401902675628662
F4.354533672332764
F4.431003570556641
F4.5027289390563965
F4.251251220703125
F4.210168361663818
F4.461225986480713
F4.583832740783691
F4.447351455688477
Fnan
F4.471236228942871
F4.689790725708008
Fnan
F3.2536959648132324
F2.9130587577819824
F2.7704482078552246
F2.349416971206665
F2.2576823234558105
F1.8824743032455444
F1.922359585762024
F1.870559573173523
F1.6576155424118042
F1.5537943840026855
F1.331597924232483
F1.2644628286361694
F1.2444463968276978
F1.2732455730438232
F1.3025046586990356
F1.1013002395629883
F1.061292290687561
F1.128048062324524
F1.0921260118484497
F1.1359280347824097
tp40
aa(lp41
F-1.5707963267948966
aF1.0
a(lp42
F9.53658003580551
aF-5.700667575676333
aF-0.001130767038213576
aa(lp43
F-0.0027991394349559653
aF-0.0028556079087095534
aF-0.7071580289404921
aF0.7070442223983543
aa(F0.9324755668640137
F1.0814268589019775
F1.0284779071807861
F1.243862509727478
F1.276310682296753
F1.15008544921875
F1.321943759918213
F1.3298639059066772
F1.50582754611969
F1.6394171714782715
F1.7387299537658691
F1.7521644830703735
F1.8793673515319824
F1.9972565174102783
F2.238452911376953
F2.3261239528656006
F3.503215789794922
F3.44113826751709
F3.4602580070495605
F3.452864408493042
F3.377108573913574
F3.250772476196289
F3.3040642738342285
F3.3564887046813965
F3.53749942779541
F3.4098172187805176
F3.4062135219573975
F3.355783462524414
F3.4191133975982666
F3.4589929580688477
Fnan
F3.5246644020080566
F3.4008357524871826
Fnan
F3.0979297161102295
F2.7672359943389893
F2.775663375854492
F2.4043822288513184
F2.1129555702209473
F1.992319941520691
F1.643654227256775
F1.6866871118545532
F1.5421197414398193
F1.485090970993042
F1.5320971012115479
F1.2312424182891846
F1.167162537574768
F1.1298034191131592
F0.9728575944900513
F1.0919172763824463
F1.0039602518081665
F1.0775388479232788
F1.0975314378738403
F0.856475830078125
tp44
aa(lp45
F-1.5707963267948966
aF1.0
a(lp46
F9.536623989114132
aF-6.70067239396668
aF-0.0011306003323676983
aa(lp47
F-0.0028425834586878976
aF-0.002811407477189034
aF-0.7071571427647589
aF0.7070451125239887
aa(F1.1413862705230713
F1.1795670986175537
F1.142061471939087
F1.1336712837219238
F1.1708734035491943
F1.2441508769989014
F1.2471452951431274
F1.522457480430603
F2.4219532012939453
F2.66264009475708
F2.5181777477264404
F2.6219935417175293
F2.3664252758026123
F2.3649234771728516
F2.5710549354553223
F2.504026412963867
F2.3748779296875
F2.3458545207977295
F2.3684940338134766
F2.2454798221588135
F2.3356668949127197
F2.3183865547180176
F2.320486307144165
F2.4361488819122314
F2.2180864810943604
F2.3148608207702637
F2.3875656127929688
F2.43407940864563
F2.4771292209625244
F2.3417105674743652
Fnan
F2.5844626426696777
F2.330054521560669
Fnan
F2.5324864387512207
F2.293792486190796
F2.407658338546753
F2.212751626968384
F2.128207206726074
F1.956248164176941
F1.8060146570205688
F1.5683716535568237
F1.4715162515640259
F1.502648949623108
F1.442939043045044
F1.221100926399231
F1.0583938360214233
F1.0617856979370117
F1.0854887962341309
F1.0201364755630493
F0.9698901772499084
F0.9202127456665039
F0.9299523830413818
F0.9440852999687195
tp48
aa(lp49
F-1.5707963267948966
aF1.0
a(lp50
F9.536713499667776
aF-7.700678843690859
aF-0.0011307214220135642
aa(lp51
F-0.002806245552890227
aF-0.002848325910563861
aF-0.7072426241944441
aF0.706959604608326
aa(F1.6143814325332642
F1.4696464538574219
F1.5446776151657104
F1.707412600517273
F1.5501010417938232
F1.5105785131454468
F1.5158720016479492
F1.5658483505249023
F1.3235677480697632
F1.4187899827957153
F1.5089008808135986
F1.4578044414520264
F1.257825255393982
F1.4348431825637817
F1.4832512140274048
F1.5715373754501343
F1.419216513633728
F1.4535433053970337
F1.3886048793792725
F1.4374408721923828
F1.444062352180481
F1.5145256519317627
F1.4047629833221436
F1.3303605318069458
F1.3746018409729004
F1.519240379333496
F1.4001829624176025
F1.3441755771636963
F1.3305569887161255
F1.5287065505981445
Fnan
F1.3060190677642822
F1.4585554599761963
Fnan
F1.5075956583023071
F1.24945867061615
F1.526934266090393
F1.4914063215255737
F1.5294796228408813
F1.4343197345733643
F1.4641648530960083
F1.5424145460128784
F1.4277032613754272
F1.388272762298584
F1.2707082033157349
F1.3735202550888062
F1.2609996795654297
F1.101525068283081
F1.3086748123168945
F0.8898491263389587
F0.9556427001953125
F0.9758124947547913
F1.0638086795806885
F0.9865710139274597
tp52
aa(lp53
F-1.5707963267948966
aF0.0
a(lp54
F9.537033057180121
aF-7.700711040364328
aF-0.00113075408482477
aa(lp55
F-0.0028079808894483278
aF-0.002846748307180323
aF-0.7072206552205248
aF0.7069815811581317
aa(F1.5293828248977661
F1.7564177513122559
F1.460829496383667
F1.5631816387176514
F1.6252195835113525
F1.5170042514801025
F1.5074794292449951
F1.718571424484253
F1.4078407287597656
F1.3752702474594116
F1.3987319469451904
F1.423391342163086
F1.6411793231964111
F1.5553606748580933
F1.4868052005767822
F1.2562295198440552
F1.5458269119262695
F1.5970059633255005
F1.3306052684783936
F1.2869906425476074
F1.4581828117370605
F1.4569436311721802
F1.3465697765350342
F1.3570770025253296
F1.4394153356552124
F1.2443394660949707
F1.4423649311065674
F1.501702904701233
F1.4475440979003906
F1.2564647197723389
Fnan
F1.4572592973709106
F1.350788950920105
Fnan
F1.338820219039917
F1.3973315954208374
F1.3073195219039917
F1.5542681217193604
F1.4246444702148438
F1.3217183351516724
F1.3451769351959229
F1.4663772583007812
F1.5319968461990356
F1.4502454996109009
F1.300803303718567
F1.1193945407867432
F1.2171956300735474
F1.1912177801132202
F1.132546305656433
F1.0914772748947144
F1.1654871702194214
F0.9298820495605469
F1.04782235622406
F0.9649692177772522
tp56
aa.