(lp0
(lp1
ccopy_reg
_reconstructor
p2
(cstd_msgs.msg._Float32
Float32
p3
c__builtin__
object
p4
Ntp5
Rp6
(lp7
F-2.356194490192345
abag2
(g3
g4
Ntp8
Rp9
(lp10
F0.0
abag2
(cturtlebot_ctrl.srv._TurtleBotControl
TurtleBotControlResponse
p11
g4
Ntp12
Rp13
(lp14
g2
(cgazebo_msgs.msg._ModelState
ModelState
p15
g4
Ntp16
Rp17
(lp18
S'mobile_base'
p19
ag2
(cgeometry_msgs.msg._Pose
Pose
p20
g4
Ntp21
Rp22
(lp23
g2
(cgeometry_msgs.msg._Point
Point
p24
g4
Ntp25
Rp26
(lp27
F5.99990923296736
aF1.0023452897408887
aF-0.0011311159221675804
abag2
(cgeometry_msgs.msg._Quaternion
Quaternion
p28
g4
Ntp29
Rp30
(lp31
F-0.0037026576263446513
aF-0.0015084273483146986
aF-0.9239202814157422
aF0.3825641496038181
ababag2
(cgeometry_msgs.msg._Twist
Twist
p32
g4
Ntp33
Rp34
(lp35
g2
(cgeometry_msgs.msg._Vector3
Vector3
p36
g4
Ntp37
Rp38
(lp39
F0.0002865961634256879
aF-0.0003024796721242248
aF-4.543314776810902e-05
abag2
(g36
g4
Ntp40
Rp41
(lp42
F-0.0010169046610795718
aF-0.000979731261357611
aF-0.0006166251705211082
ababaS''
p43
abag2
(g3
g4
Ntp44
Rp45
(lp46
F-2.2626566886901855
abag2
(g3
g4
Ntp47
Rp48
(lp49
F-0.10050485283136368
abag2
(cturtlebot_ctrl.msg._TurtleBotScan
TurtleBotScan
p50
g4
Ntp51
Rp52
(lp53
(F4.9510345458984375
F5.102305889129639
F5.275461673736572
F5.272013187408447
F5.428182125091553
F5.5032267570495605
Fnan
Fnan
Fnan
Fnan
Fnan
Fnan
Fnan
Fnan
Fnan
Fnan
Fnan
Fnan
Fnan
Fnan
Fnan
Fnan
Fnan
Fnan
Fnan
Fnan
Fnan
Fnan
Fnan
Fnan
Fnan
Fnan
Fnan
Fnan
Fnan
F4.9876227378845215
F4.772790431976318
F4.635199546813965
F4.698880195617676
F4.583440780639648
F4.562801361083984
F4.731359004974365
F4.586198806762695
F4.403507232666016
F4.790396690368652
F5.189995288848877
F5.386609077453613
Fnan
Fnan
Fnan
Fnan
Fnan
Fnan
Fnan
tp54
ababaa(lp55
g2
(g3
g4
Ntp56
Rp57
(lp58
F-2.356194490192345
abag2
(g3
g4
Ntp59
Rp60
(lp61
F1.414
abag2
(g11
g4
Ntp62
Rp63
(lp64
g2
(g15
g4
Ntp65
Rp66
(lp67
S'mobile_base'
p68
ag2
(g20
g4
Ntp69
Rp70
(lp71
g2
(g24
g4
Ntp72
Rp73
(lp74
F5.000225434813728
aF0.002304197060203232
aF-0.0011307598754969894
abag2
(g28
g4
Ntp75
Rp76
(lp77
F-0.0036851009357567973
aF-0.0015518752223250211
aF-0.9239038909430692
aF0.3826037271311466
ababag2
(g32
g4
Ntp78
Rp79
(lp80
g2
(g36
g4
Ntp81
Rp82
(lp83
F0.00023268708560947792
aF-0.0002560749287183435
aF7.312951884493876e-06
abag2
(g36
g4
Ntp84
Rp85
(lp86
F-0.0008033350301680686
aF-0.0007678386381788859
aF-0.00048558092534972533
ababag43
abag2
(g3
g4
Ntp87
Rp88
(lp89
F-2.460167407989502
abag2
(g3
g4
Ntp90
Rp91
(lp92
F1.5698421001434326
abag2
(g50
g4
Ntp93
Rp94
(lp95
(F4.352395057678223
F4.39368200302124
F4.397337913513184
F4.494978427886963
F4.648190021514893
F4.571628093719482
F4.601345539093018
F4.73950719833374
F4.712494373321533
F4.964470863342285
F5.354825496673584
F5.144137859344482
Fnan
Fnan
Fnan
Fnan
Fnan
Fnan
Fnan
Fnan
Fnan
Fnan
Fnan
Fnan
Fnan
Fnan
Fnan
F4.40335750579834
F4.131129264831543
F4.065303802490234
Fnan
F4.1755571365356445
F4.085368633270264
Fnan
F3.6490519046783447
F3.900799036026001
F3.7531847953796387
F3.5052669048309326
F3.687366485595703
F3.711235284805298
F3.621777057647705
F3.5927858352661133
F3.6504921913146973
F3.376146078109741
F3.433950424194336
F3.473783493041992
F3.314598321914673
F3.3373754024505615
F3.3321785926818848
F3.3852975368499756
F3.3387022018432617
F3.437715768814087
F3.9065024852752686
F3.987367868423462
tp96
ababaa(lp97
g2
(g3
g4
Ntp98
Rp99
(lp100
F-2.356194490192345
abag2
(g3
g4
Ntp101
Rp102
(lp103
F1.414
abag2
(g11
g4
Ntp104
Rp105
(lp106
g2
(g15
g4
Ntp107
Rp108
(lp109
S'mobile_base'
p110
ag2
(g20
g4
Ntp111
Rp112
(lp113
g2
(g24
g4
Ntp114
Rp115
(lp116
F4.000445556129021
aF-0.9976270423287744
aF-0.001130744795181049
abag2
(g28
g4
Ntp117
Rp118
(lp119
F-0.0036724787673484568
aF-0.001582147208655066
aF-0.9236660170498439
aF0.3831776332945222
ababag2
(g32
g4
Ntp120
Rp121
(lp122
g2
(g36
g4
Ntp123
Rp124
(lp125
F-0.00018636736123149074
aF0.00014283863015055002
aF-4.287637940945941e-06
abag2
(g36
g4
Ntp126
Rp127
(lp128
F0.0020243804628880253
aF0.002179810176394318
aF0.00016862930046175484
ababag43
abag2
(g3
g4
Ntp129
Rp130
(lp131
F-2.2089436054229736
abag2
(g3
g4
Ntp132
Rp133
(lp134
F1.4832417964935303
abag2
(g50
g4
Ntp135
Rp136
(lp137
(F3.6796040534973145
F3.7141013145446777
F3.7936782836914062
F3.699026584625244
F3.822036027908325
F3.950559377670288
F3.9707257747650146
F3.873192548751831
F4.067841529846191
F4.247885227203369
F4.355356216430664
F4.38184928894043
F4.320876598358154
F4.78399658203125
F4.750178337097168
F4.689848899841309
F4.8764872550964355
F5.053736686706543
Fnan
Fnan
Fnan
Fnan
Fnan
Fnan
Fnan
Fnan
Fnan
F2.8913514614105225
F2.849111557006836
F2.765794038772583
Fnan
F2.609543561935425
F2.5604116916656494
Fnan
F2.43837308883667
F2.5450634956359863
F2.3328185081481934
F2.4767627716064453
F2.5470407009124756
F2.515357494354248
F2.325521469116211
F2.3503212928771973
F2.4028029441833496
F2.2993078231811523
F2.205754280090332
F2.2296741008758545
F2.3350765705108643
F2.1988470554351807
F2.211132764816284
F2.3550126552581787
F2.1774275302886963
F1.9913005828857422
F2.2474563121795654
F2.148925304412842
tp138
ababaa(lp139
g2
(g3
g4
Ntp140
Rp141
(lp142
F-2.356194490192345
abag2
(g3
g4
Ntp143
Rp144
(lp145
F1.414
abag2
(g11
g4
Ntp146
Rp147
(lp148
g2
(g15
g4
Ntp149
Rp150
(lp151
S'mobile_base'
p152
ag2
(g20
g4
Ntp153
Rp154
(lp155
g2
(g24
g4
Ntp156
Rp157
(lp158
F3.0006963864946217
aF-1.9975911945232088
aF-0.0011307498003806926
abag2
(g28
g4
Ntp159
Rp160
(lp161
F-0.0036809206590535247
aF-0.0015621391792380735
aF-0.9239057229761555
aF0.3825993016148804
ababag2
(g32
g4
Ntp162
Rp163
(lp164
g2
(g36
g4
Ntp165
Rp166
(lp167
F7.559920226996241e-05
aF-8.850780772998865e-05
aF1.227253561089103e-05
abag2
(g36
g4
Ntp168
Rp169
(lp170
F0.00022899455003049562
aF0.0002524552652117329
aF-0.00028674603731064383
ababag43
abag2
(g3
g4
Ntp171
Rp172
(lp173
F-2.3314552307128906
abag2
(g3
g4
Ntp174
Rp175
(lp176
F1.4468164443969727
abag2
(g50
g4
Ntp177
Rp178
(lp179
(F2.743570327758789
F3.023716449737549
F3.1305322647094727
F2.98600172996521
F3.1138315200805664
F3.1895785331726074
F3.064392328262329
F3.0937581062316895
F3.394594192504883
F3.39654278755188
F3.4828381538391113
F3.448899269104004
F3.5639262199401855
F3.5673623085021973
F3.6943976879119873
F3.8975625038146973
F3.736496686935425
F4.0012993812561035
F4.201709270477295
F4.343832015991211
F4.3382439613342285
F4.4720282554626465
F4.702378749847412
F4.804764270782471
F4.969779014587402
Fnan
Fnan
F1.5316396951675415
F1.3136980533599854
F1.5803471803665161
Fnan
F1.49696683883667
F1.5006874799728394
Fnan
F1.3706492185592651
F1.3533602952957153
F1.3101545572280884
F1.3436137437820435
F1.3601090908050537
F1.217841386795044
F1.3605144023895264
F1.2370855808258057
F1.1986122131347656
F1.2431942224502563
F1.151785969734192
F1.3253318071365356
F1.2723963260650635
F1.1413121223449707
F1.0944222211837769
F1.083284854888916
F1.2313817739486694
F1.0689234733581543
F1.0072802305221558
F1.1421432495117188
tp180
ababaa(lp181
g2
(g3
g4
Ntp182
Rp183
(lp184
F-3.141592653589793
abag2
(g3
g4
Ntp185
Rp186
(lp187
F0.0
abag2
(g11
g4
Ntp188
Rp189
(lp190
g2
(g15
g4
Ntp191
Rp192
(lp193
S'mobile_base'
p194
ag2
(g20
g4
Ntp195
Rp196
(lp197
g2
(g24
g4
Ntp198
Rp199
(lp200
F3.000891681229637
aF-1.9978536944844243
aF-0.0011307267185227399
abag2
(g28
g4
Ntp201
Rp202
(lp203
F-0.003998368259538747
aF-2.4721731073718056e-05
aF-0.9999920039888308
aF-6.632118341574313e-05
ababag2
(g32
g4
Ntp204
Rp205
(lp206
g2
(g36
g4
Ntp207
Rp208
(lp209
F-4.050733548761304e-05
aF-0.0001534644716229854
aF3.712819540744406e-05
abag2
(g36
g4
Ntp210
Rp211
(lp212
F0.00015358256443001375
aF0.00015414853873100452
aF-0.0002696233199770585
ababag43
abag2
(g3
g4
Ntp213
Rp214
(lp215
F-3.262086868286133
abag2
(g3
g4
Ntp216
Rp217
(lp218
F0.11123986542224884
abag2
(g50
g4
Ntp219
Rp220
(lp221
(F2.456573247909546
F2.5591862201690674
F2.575631856918335
F2.4883553981781006
F2.4448986053466797
F2.3724443912506104
F2.465876579284668
F2.4675025939941406
F2.387209415435791
F2.4230501651763916
F2.3938498497009277
F2.4175806045532227
F2.3904073238372803
F2.5652477741241455
F2.4052083492279053
F2.430659294128418
F2.538196563720703
F2.4278576374053955
F2.396817445755005
F2.353858232498169
F2.3585495948791504
F2.3825042247772217
F2.3373324871063232
F2.4287049770355225
F2.5455996990203857
F2.52876877784729
F2.5602777004241943
F2.614502191543579
F2.55415678024292
F2.6092703342437744
Fnan
F2.9548678398132324
F2.519623279571533
Fnan
F2.7958199977874756
F2.5746235847473145
F2.833096742630005
F2.8830926418304443
F2.827923059463501
F2.796003818511963
F2.8303325176239014
F3.0979597568511963
F3.0035560131073
F2.906167984008789
F3.242699146270752
F3.116671562194824
F3.0382537841796875
F3.3638980388641357
F3.4781346321105957
F3.441425085067749
F3.351247787475586
F3.4835691452026367
F3.541254758834839
F3.6907639503479004
tp222
ababaa(lp223
g2
(g3
g4
Ntp224
Rp225
(lp226
F-3.141592653589793
abag2
(g3
g4
Ntp227
Rp228
(lp229
F1.0
abag2
(g11
g4
Ntp230
Rp231
(lp232
g2
(g15
g4
Ntp233
Rp234
(lp235
S'mobile_base'
p236
ag2
(g20
g4
Ntp237
Rp238
(lp239
g2
(g24
g4
Ntp240
Rp241
(lp242
F2.000878050690266
aF-1.9980101365024712
aF-0.0011311842702958763
abag2
(g28
g4
Ntp243
Rp244
(lp245
F-0.003998183209993691
aF-8.45547425311887e-05
aF-0.9999919855280562
aF-0.00019042366083055524
ababag2
(g32
g4
Ntp246
Rp247
(lp248
g2
(g36
g4
Ntp249
Rp250
(lp251
F-1.0314949098161746e-05
aF-0.0016855261429889123
aF-3.3068003399806975e-05
abag2
(g36
g4
Ntp252
Rp253
(lp254
F-0.012059167938895419
aF-5.846358026123954e-05
aF-0.0021130592013334734
ababag43
abag2
(g3
g4
Ntp255
Rp256
(lp257
F-3.183549404144287
abag2
(g3
g4
Ntp258
Rp259
(lp260
F0.9502609968185425
abag2
(g50
g4
Ntp261
Rp262
(lp263
(F1.4566843509674072
F1.5450340509414673
F1.315450668334961
F1.2753723859786987
F1.4666144847869873
F1.4223923683166504
F1.4504882097244263
F1.2740991115570068
F1.5391508340835571
F1.521122694015503
F1.376038670539856
F1.4863024950027466
F1.4595613479614258
F1.4030818939208984
F1.4809263944625854
F1.534925937652588
F1.5661596059799194
F1.446866750717163
F1.4676001071929932
F1.3787368535995483
F1.5501090288162231
F1.4172589778900146
F1.556805968284607
F1.4668033123016357
F1.4053648710250854
F1.5333893299102783
F1.715020775794983
F1.6568517684936523
F1.4482940435409546
F1.7748342752456665
Fnan
F1.3833763599395752
F1.6590629816055298
Fnan
F1.7215837240219116
F1.7254515886306763
F1.7843315601348877
F1.5240291357040405
F1.7678837776184082
F1.7072384357452393
F1.8610773086547852
F1.7533197402954102
F1.7823888063430786
F1.7031410932540894
F1.8446147441864014
F1.9369964599609375
F1.902233600616455
F2.012044906616211
F1.9773988723754883
F1.952619194984436
F2.2024405002593994
F2.1988322734832764
F2.1168787479400635
F2.236497640609741
tp264
ababaa(lp265
g2
(g3
g4
Ntp266
Rp267
(lp268
F-3.141592653589793
abag2
(g3
g4
Ntp269
Rp270
(lp271
F1.0
abag2
(g11
g4
Ntp272
Rp273
(lp274
g2
(g15
g4
Ntp275
Rp276
(lp277
S'mobile_base'
p278
ag2
(g20
g4
Ntp279
Rp280
(lp281
g2
(g24
g4
Ntp282
Rp283
(lp284
F1.0008632120949172
aF-1.9981757210533673
aF-0.001130990551137856
abag2
(g28
g4
Ntp285
Rp286
(lp287
F-0.003997626754212889
aF-2.619108958970898e-05
aF-0.9999919956674341
aF-0.0001639982420121987
ababag2
(g32
g4
Ntp288
Rp289
(lp290
g2
(g36
g4
Ntp291
Rp292
(lp293
F1.5678319089282223e-05
aF-4.780012013597815e-05
aF-1.4209938855876191e-05
abag2
(g36
g4
Ntp294
Rp295
(lp296
F0.0005316049256004059
aF-0.00018165675222167114
aF-0.00018058205687371482
ababag43
abag2
(g3
g4
Ntp297
Rp298
(lp299
F-3.1505889892578125
abag2
(g3
g4
Ntp300
Rp301
(lp302
F1.190604329109192
abag2
(g50
g4
Ntp303
Rp304
(lp305
(F0.44936007261276245
F0.4821716547012329
F0.6129865646362305
F0.4141424894332886
F0.582265317440033
F0.44837459921836853
F0.5399960875511169
F0.5181273818016052
F0.45404839515686035
F0.4846002459526062
F0.5682962536811829
F0.5361316204071045
F0.5346202254295349
F0.49203717708587646
F0.45269864797592163
F0.5857664942741394
F0.46970757842063904
F0.3537144660949707
F0.5111784934997559
F0.48793157935142517
F0.46051427721977234
F0.5610193610191345
F0.5046764612197876
F0.667678713798523
F0.46337181329727173
F0.5779024362564087
F0.5796110033988953
F0.5055371522903442
F0.45775920152664185
F0.5293372869491577
Fnan
F0.5216090083122253
F0.6373576521873474
Fnan
F0.6039820909500122
F0.6846926212310791
F0.556722104549408
F0.7995252013206482
F0.6703367233276367
F0.5585240125656128
F0.7116189002990723
F0.6210494637489319
F0.7046218514442444
F0.5840175151824951
F0.8106496334075928
F0.6360134482383728
F0.6492453813552856
F0.4591788649559021
F0.574418306350708
F0.9976612329483032
F0.5989735722541809
F0.7182202935218811
F0.6525182723999023
F0.9029982686042786
tp306
ababaa(lp307
g2
(g3
g4
Ntp308
Rp309
(lp310
F-1.5707963267948966
abag2
(g3
g4
Ntp311
Rp312
(lp313
F0.0
abag2
(g11
g4
Ntp314
Rp315
(lp316
g2
(g15
g4
Ntp317
Rp318
(lp319
S'mobile_base'
p320
ag2
(g20
g4
Ntp321
Rp322
(lp323
g2
(g24
g4
Ntp324
Rp325
(lp326
F1.0008307131663927
aF-1.9986491863601183
aF-0.0011307289564100598
abag2
(g28
g4
Ntp327
Rp328
(lp329
F-0.002815689467379023
aF-0.0028388412701442554
aF-0.7067245304656634
aF0.7074775267887693
ababag2
(g32
g4
Ntp330
Rp331
(lp332
g2
(g36
g4
Ntp333
Rp334
(lp335
F0.00027444457199786877
aF-3.022484655018828e-05
aF3.685708164304104e-05
abag2
(g36
g4
Ntp336
Rp337
(lp338
F-0.0001534958824714619
aF-0.0005477619712233644
aF-0.0003388354723320227
ababag43
abag2
(g3
g4
Ntp339
Rp340
(lp341
F-1.4568105936050415
abag2
(g3
g4
Ntp342
Rp343
(lp344
F-0.07038839161396027
abag2
(g50
g4
Ntp345
Rp346
(lp347
(F2.1672940254211426
F2.6339104175567627
F3.024406909942627
F3.443516969680786
F4.334615707397461
F5.392079830169678
Fnan
Fnan
Fnan
Fnan
Fnan
Fnan
Fnan
Fnan
Fnan
Fnan
Fnan
Fnan
Fnan
Fnan
Fnan
Fnan
Fnan
Fnan
Fnan
Fnan
Fnan
Fnan
Fnan
Fnan
Fnan
Fnan
Fnan
Fnan
Fnan
Fnan
Fnan
Fnan
Fnan
F4.101765155792236
F3.81860613822937
F3.4265730381011963
F3.472675323486328
F3.1506171226501465
F2.8526480197906494
F2.812368154525757
F2.7033653259277344
F2.50000262260437
F2.5739893913269043
F2.401303291320801
F2.4362804889678955
F1.9634541273117065
F2.15728759765625
F1.9054038524627686
tp348
ababaa(lp349
g2
(g3
g4
Ntp350
Rp351
(lp352
F-1.5707963267948966
abag2
(g3
g4
Ntp353
Rp354
(lp355
F1.0
abag2
(g11
g4
Ntp356
Rp357
(lp358
g2
(g15
g4
Ntp359
Rp360
(lp361
S'mobile_base'
p362
ag2
(g20
g4
Ntp363
Rp364
(lp365
g2
(g24
g4
Ntp366
Rp367
(lp368
F1.0010397771635138
aF-2.9986695538284454
aF-0.0011311161763859212
abag2
(g28
g4
Ntp369
Rp370
(lp371
F-0.002842874132022655
aF-0.0028112395044289154
aF-0.707141624206343
aF0.7070606326998651
ababag2
(g32
g4
Ntp372
Rp373
(lp374
g2
(g36
g4
Ntp375
Rp376
(lp377
F0.00041606644996716475
aF-8.700753825755652e-06
aF-4.541006103094246e-05
abag2
(g36
g4
Ntp378
Rp379
(lp380
F-2.625056282148221e-05
aF-0.0014147317869059159
aF-0.0005790467099055377
ababag43
abag2
(g3
g4
Ntp381
Rp382
(lp383
F-1.6351428031921387
abag2
(g3
g4
Ntp384
Rp385
(lp386
F0.9092981219291687
abag2
(g50
g4
Ntp387
Rp388
(lp389
(F4.161493301391602
F4.755410194396973
F5.500525951385498
Fnan
Fnan
Fnan
Fnan
Fnan
Fnan
Fnan
Fnan
Fnan
Fnan
Fnan
Fnan
Fnan
Fnan
Fnan
Fnan
Fnan
Fnan
Fnan
Fnan
Fnan
Fnan
Fnan
Fnan
Fnan
Fnan
Fnan
Fnan
Fnan
Fnan
Fnan
Fnan
Fnan
Fnan
Fnan
Fnan
Fnan
Fnan
Fnan
Fnan
F3.3391292095184326
F3.068331718444824
F2.8404903411865234
F2.652677536010742
F2.621377944946289
F2.485377073287964
F2.043588876724243
F2.371657609939575
F2.082150936126709
F1.9343016147613525
F2.1975557804107666
tp390
ababaa(lp391
g2
(g3
g4
Ntp392
Rp393
(lp394
F-1.5707963267948966
abag2
(g3
g4
Ntp395
Rp396
(lp397
F1.0
abag2
(g11
g4
Ntp398
Rp399
(lp400
g2
(g15
g4
Ntp401
Rp402
(lp403
S'mobile_base'
p404
ag2
(g20
g4
Ntp405
Rp406
(lp407
g2
(g24
g4
Ntp408
Rp409
(lp410
F1.0012105841209957
aF-3.998682454372717
aF-0.001131185135049062
abag2
(g28
g4
Ntp411
Rp412
(lp413
F-0.0027651727454356193
aF-0.0028891045806773226
aF-0.7071700733713286
aF0.707032173399768
ababag2
(g32
g4
Ntp414
Rp415
(lp416
g2
(g36
g4
Ntp417
Rp418
(lp419
F0.0016988917434826503
aF-4.750996720112941e-06
aF-3.274540223966317e-05
abag2
(g36
g4
Ntp420
Rp421
(lp422
F6.015130949088923e-05
aF-0.012033935505784849
aF-0.002096301072620031
ababag43
abag2
(g3
g4
Ntp423
Rp424
(lp425
F-1.690085530281067
abag2
(g3
g4
Ntp426
Rp427
(lp428
F0.7640022039413452
abag2
(g50
g4
Ntp429
Rp430
(lp431
(Fnan
Fnan
Fnan
Fnan
Fnan
Fnan
Fnan
Fnan
Fnan
Fnan
Fnan
Fnan
Fnan
Fnan
Fnan
Fnan
Fnan
Fnan
Fnan
Fnan
Fnan
Fnan
Fnan
Fnan
Fnan
Fnan
Fnan
Fnan
Fnan
Fnan
Fnan
Fnan
Fnan
Fnan
Fnan
Fnan
Fnan
Fnan
Fnan
Fnan
Fnan
Fnan
Fnan
Fnan
Fnan
Fnan
Fnan
Fnan
Fnan
Fnan
F2.1449992656707764
F2.1874961853027344
F2.1771957874298096
F1.9715198278427124
tp432
ababaa(lp433
g2
(g3
g4
Ntp434
Rp435
(lp436
F-1.5707963267948966
abag2
(g3
g4
Ntp437
Rp438
(lp439
F1.0
abag2
(g11
g4
Ntp440
Rp441
(lp442
g2
(g15
g4
Ntp443
Rp444
(lp445
S'mobile_base'
p446
ag2
(g20
g4
Ntp447
Rp448
(lp449
g2
(g24
g4
Ntp450
Rp451
(lp452
F1.001317932509204
aF-4.998695401187382
aF-0.0011307446027877532
abag2
(g28
g4
Ntp453
Rp454
(lp455
F-0.0028098784352075124
aF-0.002844875416190828
aF-0.7071673842009898
aF0.707034866176609
ababag2
(g32
g4
Ntp456
Rp457
(lp458
g2
(g36
g4
Ntp459
Rp460
(lp461
F0.00019962926750154573
aF-2.42345795251547e-05
aF7.346720359557151e-06
abag2
(g36
g4
Ntp462
Rp463
(lp464
F-2.625596870773322e-05
aF-0.00019919393209432914
aF-0.00038938871643119774
ababag43
abag2
(g3
g4
Ntp465
Rp466
(lp467
F-1.3528661727905273
abag2
(g3
g4
Ntp468
Rp469
(lp470
F1.0575190782546997
abag2
(g50
g4
Ntp471
Rp472
(lp473
(F4.653064727783203
F4.530545711517334
F4.546609401702881
F4.515909671783447
F4.528194427490234
F4.507390022277832
F4.490817546844482
F4.366694927215576
F4.369391918182373
F4.313788414001465
F4.59296178817749
F4.3380632400512695
F4.420602798461914
F4.125482559204102
F4.114339828491211
F4.200466156005859
F4.047895908355713
F4.040131092071533
F4.198941707611084
F4.0877251625061035
F4.172089099884033
F4.095426082611084
F4.041886806488037
F4.137076377868652
F3.984837293624878
F4.160757541656494
F4.081925868988037
F4.124820232391357
F3.9530625343322754
F3.910508632659912
Fnan
F4.170990467071533
F4.079578399658203
Fnan
F4.145998001098633
F4.0993757247924805
F4.2045722007751465
F4.110558986663818
F4.1342973709106445
F4.276366233825684
F4.294937610626221
F4.293939113616943
F4.423448085784912
F4.331686496734619
F4.477309226989746
F4.361876964569092
F4.434035301208496
F4.4309186935424805
F4.451164722442627
F4.516208648681641
F4.596275329589844
F4.631670951843262
F4.741634845733643
F4.742455005645752
tp474
ababaa(lp475
g2
(g3
g4
Ntp476
Rp477
(lp478
F-1.5707963267948966
abag2
(g3
g4
Ntp479
Rp480
(lp481
F1.0
abag2
(g11
g4
Ntp482
Rp483
(lp484
g2
(g15
g4
Ntp485
Rp486
(lp487
S'mobile_base'
p488
ag2
(g20
g4
Ntp489
Rp490
(lp491
g2
(g24
g4
Ntp492
Rp493
(lp494
F1.0014257097188068
aF-5.9987067667171345
aF-0.0011307326361977288
abag2
(g28
g4
Ntp495
Rp496
(lp497
F-0.0028080484462299016
aF-0.0028467720841879296
aF-0.707233107447868
aF0.7069691241364481
ababag2
(g32
g4
Ntp498
Rp499
(lp500
g2
(g36
g4
Ntp501
Rp502
(lp503
F0.00021932336476858025
aF-1.9224532255199707e-05
aF1.2441914319342021e-05
abag2
(g36
g4
Ntp504
Rp505
(lp506
F-1.7213160200935274e-05
aF-0.0004682149395893105
aF-0.0004311269881892595
ababag43
abag2
(g3
g4
Ntp507
Rp508
(lp509
F-1.48138427734375
abag2
(g3
g4
Ntp510
Rp511
(lp512
F1.0157264471054077
abag2
(g50
g4
Ntp513
Rp514
(lp515
(F3.519721269607544
F3.233736276626587
F3.4681143760681152
F3.264591693878174
F3.3189427852630615
F3.456393241882324
F3.3476336002349854
F3.3369202613830566
F3.229780673980713
F3.3668136596679688
F3.318852424621582
F3.0810821056365967
F3.2734663486480713
F3.191958427429199
F3.0574963092803955
F3.1565370559692383
F3.054749011993408
F3.1012380123138428
F3.129608392715454
F3.1113181114196777
F3.047851800918579
F3.0940940380096436
F3.084110736846924
F3.193859338760376
F3.0678555965423584
F2.9435198307037354
F3.214817762374878
F3.0541038513183594
F2.9970543384552
F3.0521388053894043
Fnan
F3.1146891117095947
F3.1560561656951904
Fnan
F3.2752976417541504
F3.131122589111328
F3.200117826461792
F3.1276087760925293
F3.2629382610321045
F3.333778142929077
F3.2186994552612305
F3.1539626121520996
F3.112769842147827
F3.203482151031494
F3.3478152751922607
F3.3530588150024414
F3.3246688842773438
F3.330095052719116
F3.374394655227661
F3.3249471187591553
F3.482283353805542
F3.700378179550171
F3.4539265632629395
F3.5537211894989014
tp516
ababaa(lp517
g2
(g3
g4
Ntp518
Rp519
(lp520
F-0.7853981633974483
abag2
(g3
g4
Ntp521
Rp522
(lp523
F0.0
abag2
(g11
g4
Ntp524
Rp525
(lp526
g2
(g15
g4
Ntp527
Rp528
(lp529
S'mobile_base'
p530
ag2
(g20
g4
Ntp531
Rp532
(lp533
g2
(g24
g4
Ntp534
Rp535
(lp536
F1.002778642505046
aF-5.998819787591072
aF-0.0011307423217773171
abag2
(g28
g4
Ntp537
Rp538
(lp539
F-0.0014826506629067617
aF-0.0037137299619712503
aF-0.3828013878605081
aF0.9238220106756767
ababag2
(g32
g4
Ntp540
Rp541
(lp542
g2
(g36
g4
Ntp543
Rp544
(lp545
F-0.00014166558052630993
aF-0.00018498500228773
aF-4.193537473342288e-06
abag2
(g36
g4
Ntp546
Rp547
(lp548
F-0.002179666063646367
aF0.0020304152224292125
aF0.00014928473041175887
ababag43
abag2
(g3
g4
Ntp549
Rp550
(lp551
F-0.954738438129425
abag2
(g3
g4
Ntp552
Rp553
(lp554
F0.0326513797044754
abag2
(g50
g4
Ntp555
Rp556
(lp557
(F3.077296257019043
F3.195554733276367
F3.381218671798706
F3.174987554550171
F3.321566581726074
F3.295563220977783
F3.310471773147583
F3.3006503582000732
F3.3435773849487305
F3.330214738845825
F3.4378840923309326
F3.601938247680664
F3.525608539581299
F3.361448287963867
F3.5581018924713135
F3.572187662124634
F3.6739349365234375
F3.6708672046661377
F3.7615368366241455
F3.649660587310791
F3.966602087020874
F3.9506278038024902
F3.9702212810516357
F4.135981559753418
F4.312282085418701
F4.098570823669434
F4.19450569152832
F4.261240482330322
F4.3188910484313965
F4.392014503479004
Fnan
F4.90070104598999
F4.904632568359375
Fnan
Fnan
Fnan
Fnan
Fnan
Fnan
Fnan
Fnan
Fnan
Fnan
Fnan
Fnan
Fnan
Fnan
Fnan
Fnan
Fnan
Fnan
Fnan
Fnan
Fnan
tp558
ababaa(lp559
g2
(g3
g4
Ntp560
Rp561
(lp562
F-0.7853981633974483
abag2
(g3
g4
Ntp563
Rp564
(lp565
F1.0
abag2
(g11
g4
Ntp566
Rp567
(lp568
g2
(g15
g4
Ntp569
Rp570
(lp571
S'mobile_base'
p572
ag2
(g20
g4
Ntp573
Rp574
(lp575
g2
(g24
g4
Ntp576
Rp577
(lp578
F1.709975767485084
aF-6.705849085795403
aF-0.0011307680033700584
abag2
(g28
g4
Ntp579
Rp580
(lp581
F-0.0014776884788188734
aF-0.0037158796577279134
aF-0.3827489729429572
aF0.9238437272538252
ababag2
(g32
g4
Ntp582
Rp583
(lp584
g2
(g36
g4
Ntp585
Rp586
(lp587
F-0.00015655654073746698
aF-0.00017458298909835357
aF7.733748095545138e-06
abag2
(g36
g4
Ntp588
Rp589
(lp590
F-0.00217195893383462
aF0.0021413275182297826
aF0.0001144604886291678
ababag43
abag2
(g3
g4
Ntp591
Rp592
(lp593
F-0.8719863295555115
abag2
(g3
g4
Ntp594
Rp595
(lp596
F0.9800428152084351
abag2
(g50
g4
Ntp597
Rp598
(lp599
(F2.3919827938079834
F2.4592037200927734
F2.3857553005218506
F2.480677843093872
F2.568589448928833
F2.401702642440796
F2.5565803050994873
F2.4578216075897217
F2.645881414413452
F2.524895429611206
F2.638357639312744
F2.6087279319763184
F2.606666326522827
F2.851705312728882
F2.8259873390197754
F2.630800724029541
F2.7397525310516357
F2.781183958053589
F2.591017484664917
F2.8005149364471436
F2.8202390670776367
F2.880178451538086
F3.2030386924743652
F3.1404097080230713
F3.1392595767974854
F3.2312207221984863
F3.3310461044311523
F3.4430325031280518
F3.4723191261291504
F3.5280184745788574
Fnan
F3.7807178497314453
F3.673577070236206
Fnan
F3.894662618637085
F4.1072845458984375
F4.2733964920043945
F4.302162170410156
F4.619054794311523
F4.521631717681885
F4.833413600921631
F5.03634786605835
F5.016152381896973
F5.356799602508545
Fnan
Fnan
Fnan
Fnan
Fnan
Fnan
Fnan
Fnan
Fnan
Fnan
tp600
ababaa(lp601
g2
(g3
g4
Ntp602
Rp603
(lp604
F-0.7853981633974483
abag2
(g3
g4
Ntp605
Rp606
(lp607
F1.0
abag2
(g11
g4
Ntp608
Rp609
(lp610
g2
(g15
g4
Ntp611
Rp612
(lp613
S'mobile_base'
p614
ag2
(g20
g4
Ntp615
Rp616
(lp617
g2
(g24
g4
Ntp618
Rp619
(lp620
F2.4171412660646046
aF-7.412905796356248
aF-0.0011307576283811072
abag2
(g28
g4
Ntp621
Rp622
(lp623
F-0.001506337864374575
aF-0.0037039816402572113
aF-0.3828609954703264
aF0.9237973098108252
ababag2
(g32
g4
Ntp624
Rp625
(lp626
g2
(g36
g4
Ntp627
Rp628
(lp629
F0.00014763052644370934
aF0.00011799807652735984
aF7.2393944537293155e-06
abag2
(g36
g4
Ntp630
Rp631
(lp632
F9.892488063052255e-05
aF-0.0001346866924518792
aF-0.0003346215604106828
ababag43
abag2
(g3
g4
Ntp633
Rp634
(lp635
F-0.629126250743866
abag2
(g3
g4
Ntp636
Rp637
(lp638
F1.0906901359558105
abag2
(g50
g4
Ntp639
Rp640
(lp641
(F1.6792607307434082
F1.7607815265655518
F1.811965823173523
F1.811517596244812
F1.6494407653808594
F1.6612213850021362
F1.5962581634521484
F1.805893898010254
F1.8423653841018677
F1.9891655445098877
F1.858652949333191
F1.7050269842147827
F1.7727198600769043
F1.9019689559936523
F1.9592268466949463
F2.0854203701019287
F1.835440754890442
F1.9503098726272583
F2.007436513900757
F2.0110816955566406
F2.25262451171875
F2.1850485801696777
F2.213738203048706
F2.231694459915161
F2.196073293685913
F2.101438045501709
F2.2966833114624023
F2.535727024078369
F2.470446825027466
F2.589138984680176
Fnan
F2.50536847114563
F2.480177640914917
Fnan
F2.972944974899292
F2.6411967277526855
F2.9947023391723633
F3.020277500152588
F2.9543778896331787
F2.9996585845947266
F3.4028565883636475
F3.2886500358581543
F3.5320188999176025
F3.728771448135376
F4.114523887634277
F4.026024341583252
F4.105364799499512
F4.208524227142334
F4.494002342224121
F4.8958964347839355
F5.02393913269043
F5.557621002197266
Fnan
Fnan
tp642
ababaa(lp643
g2
(g3
g4
Ntp644
Rp645
(lp646
F-0.7853981633974483
abag2
(g3
g4
Ntp647
Rp648
(lp649
F0.0
abag2
(g11
g4
Ntp650
Rp651
(lp652
g2
(g15
g4
Ntp653
Rp654
(lp655
S'mobile_base'
p656
ag2
(g20
g4
Ntp657
Rp658
(lp659
g2
(g24
g4
Ntp660
Rp661
(lp662
F2.417379309561361
aF-7.41270813832471
aF-0.0011307255626489265
abag2
(g28
g4
Ntp663
Rp664
(lp665
F-0.0015101631628938715
aF-0.0037022845735114837
aF-0.38273872096353573
aF0.9238479766559836
ababag2
(g32
g4
Ntp666
Rp667
(lp668
g2
(g36
g4
Ntp669
Rp670
(lp671
F7.039250606596282e-05
aF2.3172690039023155e-05
aF3.721365389957697e-05
abag2
(g36
g4
Ntp672
Rp673
(lp674
F-0.0006448351327713263
aF0.00042387194455048533
aF-0.00018760880401285827
ababag43
abag2
(g3
g4
Ntp675
Rp676
(lp677
F-0.722266674041748
abag2
(g3
g4
Ntp678
Rp679
(lp680
F0.0894557312130928
abag2
(g50
g4
Ntp681
Rp682
(lp683
(F1.605162501335144
F1.6381943225860596
F1.6943025588989258
F1.735788345336914
F1.8561729192733765
F1.788597822189331
F1.673385739326477
F1.839325189590454
F1.7368357181549072
F1.8408981561660767
F1.8790886402130127
F1.9061217308044434
F1.9093234539031982
F1.6578161716461182
F1.8938682079315186
F2.0744431018829346
F1.9453485012054443
F2.0181190967559814
F1.9053990840911865
F1.9311776161193848
F1.8853540420532227
F2.0549168586730957
F2.3051812648773193
F2.2249176502227783
F2.191742420196533
F2.2843079566955566
F2.2245187759399414
F2.375955104827881
F2.3590142726898193
F2.3797411918640137
Fnan
F2.642798900604248
F2.65968918800354
Fnan
F2.7704782485961914
F2.7971432209014893
F2.9045608043670654
F3.285745143890381
F3.2389276027679443
F3.07456374168396
F3.2340681552886963
F3.5481157302856445
F3.4059925079345703
F3.623607635498047
F3.7736916542053223
F4.065415859222412
F4.198616027832031
F4.338156700134277
F4.806686878204346
F4.859055042266846
F5.04628324508667
F5.583864212036133
Fnan
Fnan
tp684
ababaa.