(lp0
(lp1
F-1.5707963267948966
aF0.0
a(lp2
F6.000106893163282
aF1.0041754302636208
aF-0.0011307463971999832
aa(lp3
F-0.0028252133709929443
aF-0.0028295236082452424
aF-0.7071521306740197
aF0.7070501227273447
aa(F2.5818898677825928
F2.6663248538970947
F2.745058298110962
F2.8914635181427
F2.661104679107666
F2.628911018371582
F2.835343599319458
F2.957205295562744
F3.2114992141723633
F3.232574701309204
F3.136483669281006
Fnan
Fnan
Fnan
Fnan
Fnan
Fnan
Fnan
Fnan
Fnan
Fnan
Fnan
Fnan
Fnan
Fnan
Fnan
Fnan
Fnan
Fnan
Fnan
Fnan
Fnan
Fnan
Fnan
Fnan
Fnan
F5.072558879852295
F5.117763042449951
F5.053994655609131
F4.673081398010254
F4.864302635192871
F4.6341872215271
F4.4450788497924805
F4.520150661468506
F4.409215450286865
F4.555688381195068
F4.344416618347168
F4.245205402374268
F4.300750255584717
F4.198914527893066
F4.313805103302002
F4.129884243011475
F4.300400257110596
F4.107980728149414
tp4
aa(lp5
F-1.5707963267948966
aF1.0
a(lp6
F6.000221808005223
aF0.0041691550638183915
aF-0.0011307419156312004
aa(lp7
F-0.002806943502418372
aF-0.002847859522845997
aF-0.7072377779452704
aF0.706964451872475
aa(F2.1998417377471924
F2.2938663959503174
F2.30830454826355
F2.309311628341675
Fnan
Fnan
Fnan
Fnan
Fnan
Fnan
Fnan
Fnan
Fnan
Fnan
Fnan
Fnan
Fnan
Fnan
Fnan
Fnan
Fnan
Fnan
Fnan
Fnan
Fnan
Fnan
Fnan
Fnan
F4.925874710083008
F4.788483619689941
Fnan
F4.459868907928467
F4.555808067321777
Fnan
F4.230804443359375
F4.295114040374756
F4.241840362548828
F4.048307418823242
F3.9656779766082764
F3.901550531387329
F3.9768757820129395
F3.907785415649414
F4.079207420349121
F3.608262300491333
F3.7698633670806885
F3.756110906600952
F3.574035167694092
F3.7565081119537354
F3.4876315593719482
F3.4647064208984375
F3.6362104415893555
F3.3801817893981934
F3.43186354637146
F3.4613707065582275
tp8
aa(lp9
F-1.5707963267948966
aF1.0
a(lp10
F6.000300640467462
aF-0.9958389388157852
aF-0.001130742376144911
aa(lp11
F-0.002806044227556082
aF-0.002848733186184322
aF-0.7072368767560617
aF0.7069653534589643
aa(Fnan
Fnan
Fnan
Fnan
Fnan
F5.493395805358887
F5.3833818435668945
F5.2400054931640625
F5.290627956390381
F5.029934406280518
F5.061135292053223
F4.913547039031982
F4.861926078796387
F4.719234943389893
F4.756017208099365
F4.581909656524658
F4.578429222106934
F4.4099016189575195
F4.446366310119629
F4.471232891082764
F4.311365127563477
F4.295750617980957
F4.365394115447998
F4.376210689544678
F4.272069931030273
F4.049543857574463
F4.068599224090576
F4.122840881347656
F4.031062126159668
F3.8050570487976074
Fnan
F3.614837884902954
F3.737098455429077
Fnan
F3.481576919555664
F3.4910757541656494
F3.344655752182007
F3.285022497177124
F3.1440012454986572
F3.148829936981201
F3.1379034519195557
F2.9046707153320312
F3.0147178173065186
F3.0571517944335938
F3.1551342010498047
F3.0407161712646484
F2.946143627166748
F2.912230968475342
F2.7393124103546143
F3.1126413345336914
F2.8348939418792725
F2.881110668182373
F2.550579071044922
F2.873685598373413
tp12
aa(lp13
F-1.5707963267948966
aF1.0
a(lp14
F6.000380837864375
aF-1.995846322304701
aF-0.001130742222543668
aa(lp15
F-0.0028229424159737235
aF-0.0028317957708545527
aF-0.7071470513440054
aF0.7070552027276985
aa(F4.703029632568359
F4.438060283660889
F4.475455284118652
F4.141547203063965
F4.211459159851074
F4.024096488952637
F4.003317356109619
F3.932790517807007
F3.8362858295440674
F3.7767298221588135
F3.7999255657196045
F3.650408983230591
F3.672908067703247
F3.5551400184631348
F3.534679889678955
F3.4813930988311768
F3.4296762943267822
F3.375526189804077
F3.4252583980560303
F3.31815242767334
F3.3260700702667236
F3.176102638244629
F3.2708449363708496
F3.3490045070648193
F3.2674813270568848
F3.251060724258423
F3.0470738410949707
F3.2072184085845947
F3.083132028579712
F2.7755656242370605
Fnan
F2.966534376144409
F2.624488115310669
Fnan
F2.7814886569976807
F2.692213773727417
F2.4053525924682617
F2.5154788494110107
F2.4937222003936768
F2.4659128189086914
F2.3659512996673584
F2.3911471366882324
F2.2968878746032715
F2.2179224491119385
F2.2536842823028564
F2.2240281105041504
F2.273195505142212
F2.2540528774261475
F2.123657703399658
F2.1157078742980957
F2.2062294483184814
F1.9972394704818726
F2.0817391872406006
F2.111976146697998
tp16
aa(lp17
F-1.5707963267948966
aF1.0
a(lp18
F6.000457055351965
aF-2.995852280371407
aF-0.0011307557479500463
aa(lp19
F-0.0028060612700769685
aF-0.002848654684032004
aF-0.7072419065118173
aF0.7069603219843172
aa(F3.119537591934204
F3.0727639198303223
F2.7122678756713867
F2.9296700954437256
F3.032276153564453
F2.779738426208496
F2.7075023651123047
F2.8640546798706055
F2.53873348236084
F2.5134894847869873
F2.757124185562134
F2.4536497592926025
F2.5319643020629883
F2.410947561264038
F2.6588826179504395
F2.4329264163970947
F2.2658889293670654
F2.279426336288452
F2.359651565551758
F2.15022873878479
F2.219881296157837
F2.1375620365142822
F2.2420737743377686
F2.1151251792907715
F2.0133416652679443
F2.049755811691284
F2.089552402496338
F2.1197032928466797
F1.8403286933898926
F2.059434413909912
Fnan
F1.8401284217834473
F1.8189655542373657
Fnan
F1.7189874649047852
F1.7566088438034058
F1.7667797803878784
F1.7646256685256958
F1.5893886089324951
F1.7137686014175415
F1.6378053426742554
F1.771871566772461
F1.4698615074157715
F1.397817850112915
F1.432959794998169
F1.441044569015503
F1.6918965578079224
F1.3909759521484375
F1.4188714027404785
F1.3666317462921143
F1.268320918083191
F1.3637731075286865
F1.2830109596252441
F1.3147892951965332
tp20
aa(lp21
F-1.5707963267948966
aF1.0
a(lp22
F6.000554266177952
aF-3.9958608539537264
aF-0.0011307427626911781
aa(lp23
F-0.002805521240655491
aF-0.0028492506387457735
aF-0.7071624379624213
aF0.7070398129924584
aa(F1.6543340682983398
F1.6040973663330078
F1.4500051736831665
F1.4290851354599
F1.3665117025375366
F1.5758743286132812
F1.2112987041473389
F1.20643150806427
F1.2591122388839722
F1.4395809173583984
F1.1590722799301147
F1.2289634943008423
F1.244432806968689
F1.0536277294158936
F1.134732723236084
F1.2380530834197998
F1.2183010578155518
F1.0692986249923706
F1.1143394708633423
F1.1480804681777954
F1.36579430103302
F1.0987372398376465
F1.0653672218322754
F1.2676290273666382
F1.0416107177734375
F1.0609065294265747
F1.1760109663009644
F1.2198609113693237
F1.0883376598358154
F0.9942785501480103
Fnan
F0.947897732257843
F1.0673425197601318
Fnan
F0.8816946744918823
F0.8002306222915649
F0.8885776996612549
F1.1097537279129028
F0.794733464717865
F0.6973351240158081
F0.6933805346488953
F0.7878006100654602
F0.7976951003074646
F0.7362329959869385
F0.9318400025367737
F0.8235684037208557
F0.9609553217887878
F0.8813339471817017
F0.8875238299369812
F0.6672990918159485
F0.6568865776062012
F0.6869234442710876
F0.732011616230011
F0.7657323479652405
tp24
aa(lp25
F-2.356194490192345
aF0.0
a(lp26
F6.001121691687726
aF-3.9959387749918505
aF-0.0011307288566488605
aa(lp27
F-0.0036783032398324434
aF-0.0015679821251322488
aF-0.9236670965864907
aF0.3831750333735404
aa(Fnan
Fnan
Fnan
Fnan
Fnan
Fnan
Fnan
Fnan
Fnan
Fnan
Fnan
Fnan
Fnan
Fnan
Fnan
Fnan
F4.790177345275879
F4.577470779418945
F4.009020805358887
F3.8710105419158936
F3.612966537475586
F3.426923990249634
F2.974494218826294
F2.878168821334839
F2.8511974811553955
F2.6429545879364014
F2.520023822784424
F2.260880708694458
F2.371277332305908
F2.377239942550659
Fnan
F1.9822778701782227
F1.8856674432754517
Fnan
F2.029844284057617
F1.8838753700256348
F1.6461760997772217
F1.8255232572555542
F1.564640998840332
F1.579781413078308
F1.536671757698059
F1.5250542163848877
F1.4987154006958008
F1.37643563747406
F1.411532998085022
F1.4127167463302612
F1.4683321714401245
F1.552777647972107
F1.2508234977722168
F1.4191209077835083
F1.3196659088134766
F1.3861972093582153
F1.149765133857727
F1.2005577087402344
tp28
aa(lp29
F-2.356194490192345
aF1.0
a(lp30
F5.2940995599709355
aF-4.703147880546172
aF-0.001130720619905462
aa(lp31
F-0.0036826803592719744
aF-0.0015574995763615535
aF-0.9238999962970094
aF0.38261313216201437
aa(Fnan
Fnan
Fnan
Fnan
Fnan
Fnan
Fnan
Fnan
Fnan
Fnan
Fnan
Fnan
F4.982147693634033
F4.201893329620361
F3.793968439102173
F3.201439619064331
F2.9216041564941406
F2.547283172607422
F2.676783323287964
F2.1811416149139404
F2.1121208667755127
F1.9038581848144531
F1.7192689180374146
F1.8310534954071045
F1.5445058345794678
F1.5483859777450562
F1.5414937734603882
F1.3913284540176392
F1.476940631866455
F1.1703609228134155
Fnan
F1.0997146368026733
F1.2536324262619019
Fnan
F1.0618398189544678
F1.1052356958389282
F1.280339241027832
F1.2564617395401
F0.9985714554786682
F0.9368959665298462
F1.0983647108078003
F0.8241826891899109
F1.0227015018463135
F0.9375866651535034
F0.8423312902450562
F0.785908043384552
F0.6920307278633118
F0.6400871276855469
F0.7218376398086548
F0.6948978900909424
F0.7978920936584473
F0.7313875555992126
F0.7037896513938904
F0.8567728400230408
tp32
aa(lp33
F-3.141592653589793
aF0.0
a(lp34
F5.2943485682548435
aF-4.703471326689252
aF-0.0011307738188279237
aa(lp35
F-0.003998451237224436
aF-1.1012709516793627e-05
aF-0.9999920046936502
aF-5.305844180438805e-05
aa(F1.7972525358200073
F1.4758628606796265
F1.6140377521514893
Fnan
Fnan
Fnan
Fnan
Fnan
Fnan
Fnan
Fnan
Fnan
Fnan
Fnan
Fnan
Fnan
Fnan
Fnan
Fnan
Fnan
Fnan
Fnan
Fnan
Fnan
Fnan
Fnan
Fnan
Fnan
Fnan
Fnan
Fnan
Fnan
Fnan
Fnan
Fnan
Fnan
Fnan
Fnan
Fnan
Fnan
Fnan
Fnan
Fnan
Fnan
Fnan
Fnan
Fnan
Fnan
Fnan
Fnan
Fnan
Fnan
F4.310225009918213
F3.760284900665283
tp36
aa(lp37
F-3.141592653589793
aF1.0
a(lp38
F4.2943383681960965
aF-4.703607386593992
aF-0.0011307551609082422
aa(lp39
F-0.003998498321001012
aF-2.826517167999019e-05
aF-0.9999918510942069
aF-0.0005558394001363334
aa(F5.434013366699219
Fnan
Fnan
Fnan
Fnan
Fnan
Fnan
Fnan
Fnan
Fnan
Fnan
Fnan
Fnan
Fnan
Fnan
Fnan
Fnan
Fnan
Fnan
Fnan
Fnan
Fnan
Fnan
Fnan
Fnan
Fnan
Fnan
Fnan
Fnan
Fnan
Fnan
F4.411495685577393
F4.822258949279785
Fnan
F4.7076191902160645
F4.846816062927246
Fnan
Fnan
Fnan
Fnan
Fnan
Fnan
Fnan
Fnan
Fnan
Fnan
Fnan
Fnan
Fnan
Fnan
Fnan
Fnan
Fnan
Fnan
tp40
aa(lp41
F-3.141592653589793
aF1.0
a(lp42
F3.2943314982536376
aF-4.703693089589205
aF-0.0011307574186147362
aa(lp43
F-0.00399846549671672
aF-3.432239525845635e-05
aF-0.9999918757251487
aF0.0005094892970130404
aa(Fnan
Fnan
Fnan
Fnan
Fnan
Fnan
Fnan
Fnan
Fnan
Fnan
Fnan
Fnan
Fnan
Fnan
Fnan
Fnan
Fnan
Fnan
Fnan
Fnan
Fnan
Fnan
Fnan
Fnan
Fnan
Fnan
Fnan
Fnan
Fnan
Fnan
Fnan
Fnan
F3.1203770637512207
Fnan
F3.6860384941101074
F3.669677734375
F3.869333267211914
F3.941490888595581
F4.036717891693115
F4.258236408233643
F4.228416442871094
F4.571499347686768
F4.605697154998779
F4.998978137969971
F5.145411491394043
F5.2150702476501465
Fnan
Fnan
Fnan
Fnan
Fnan
Fnan
Fnan
Fnan
tp44
aa(lp45
F-3.141592653589793
aF1.0
a(lp46
F2.294324908300617
aF-4.70377088354857
aF-0.0011307483945891816
aa(lp47
F-0.003998423325562012
aF-3.557915563061749e-06
aF-0.9999920035070993
aF-7.429743226305629e-05
aa(Fnan
Fnan
Fnan
Fnan
Fnan
Fnan
Fnan
Fnan
Fnan
Fnan
Fnan
Fnan
Fnan
Fnan
Fnan
Fnan
Fnan
Fnan
Fnan
Fnan
Fnan
Fnan
Fnan
Fnan
Fnan
Fnan
Fnan
Fnan
Fnan
Fnan
Fnan
Fnan
Fnan
Fnan
F2.4995598793029785
F2.6468145847320557
F2.7147257328033447
F2.613539218902588
F2.7244668006896973
F2.759652614593506
F3.081723213195801
F3.143187999725342
F3.244335889816284
F3.4229187965393066
F3.4646921157836914
F3.552978754043579
F3.5605175495147705
F4.092774868011475
F3.98689603805542
F4.463994026184082
F4.681000709533691
F5.099989414215088
F5.370493412017822
F5.647335052490234
tp48
aa(lp49
F-3.141592653589793
aF1.0
a(lp50
F1.294317908709285
aF-4.703861964857869
aF-0.0011307596571790979
aa(lp51
F-0.0039984549768580695
aF-2.75601963558588e-05
aF-0.9999918596891831
aF0.0005405123520871815
aa(Fnan
Fnan
Fnan
Fnan
Fnan
Fnan
Fnan
Fnan
Fnan
Fnan
Fnan
Fnan
Fnan
Fnan
Fnan
Fnan
Fnan
Fnan
Fnan
Fnan
Fnan
Fnan
Fnan
Fnan
Fnan
Fnan
Fnan
Fnan
Fnan
Fnan
Fnan
Fnan
Fnan
Fnan
Fnan
Fnan
Fnan
F2.6666347980499268
F1.4381426572799683
F1.5034321546554565
F1.6586239337921143
F1.6092218160629272
F1.7735623121261597
F1.7910414934158325
F1.7587143182754517
F2.0045111179351807
F1.9526275396347046
F1.9889417886734009
F2.0857882499694824
F2.213308095932007
F2.580465078353882
F2.6827139854431152
F2.8990962505340576
F2.8879165649414062
tp52
aa(lp53
F-3.141592653589793
aF1.0
a(lp54
F0.2943102723476666
aF-4.703982377910975
aF-0.0011307185802449105
aa(lp55
F-0.003998395101682077
aF-2.488460185963248e-05
aF-0.9999919906060518
aF-0.0001759008622039423
aa(Fnan
Fnan
Fnan
Fnan
Fnan
Fnan
Fnan
Fnan
Fnan
Fnan
Fnan
Fnan
Fnan
Fnan
Fnan
Fnan
Fnan
Fnan
Fnan
Fnan
Fnan
Fnan
Fnan
Fnan
Fnan
Fnan
Fnan
Fnan
Fnan
Fnan
Fnan
Fnan
Fnan
Fnan
Fnan
Fnan
Fnan
Fnan
Fnan
F4.981900691986084
F3.2474424839019775
F2.5415163040161133
F1.9865609407424927
F1.6523630619049072
F1.5207767486572266
F1.3599096536636353
F1.1384050846099854
F1.158919334411621
F1.1000410318374634
F0.9845403432846069
F0.7548727989196777
F0.6181188821792603
F0.6949245929718018
F0.7622467279434204
tp56
aa(lp57
F-3.141592653589793
aF0.0
a(lp58
F0.2942980602848184
aF-4.704104197996618
aF-0.001130725975562602
aa(lp59
F-0.0039983552149255265
aF-2.0647842563926927e-05
aF-0.9999918584258763
aF0.0005438852856904913
aa(Fnan
Fnan
Fnan
Fnan
Fnan
Fnan
Fnan
Fnan
Fnan
Fnan
Fnan
Fnan
Fnan
Fnan
Fnan
Fnan
Fnan
Fnan
Fnan
Fnan
Fnan
Fnan
Fnan
Fnan
Fnan
Fnan
Fnan
Fnan
Fnan
Fnan
Fnan
Fnan
Fnan
Fnan
Fnan
Fnan
Fnan
Fnan
Fnan
F4.535775661468506
F3.1125168800354004
F2.4729301929473877
F1.9240666627883911
F1.6709755659103394
F1.3848140239715576
F1.191349744796753
F0.99815833568573
F1.0315544605255127
F1.0310304164886475
F0.9192963242530823
F0.8883580565452576
F0.9007818102836609
F0.9434500336647034
F0.8113033175468445
tp60
aa.