(lp0
(lp1
F-1.5707963267948966
aF0.0
a(lp2
F6.000396733427156
aF1.0066283221441372
aF-0.0011307648574651885
aa(lp3
F-0.002803595288631064
aF-0.002851099675627051
aF-0.7072329607821775
aF0.7069692710913057
aa(F2.5817337036132812
F2.5661962032318115
F2.795471668243408
F2.727552652359009
F2.6815316677093506
F2.7105979919433594
F3.0446927547454834
F3.0760915279388428
F3.0409934520721436
F3.033940315246582
F3.054755687713623
Fnan
Fnan
Fnan
Fnan
Fnan
Fnan
Fnan
Fnan
Fnan
Fnan
Fnan
Fnan
Fnan
Fnan
Fnan
Fnan
Fnan
Fnan
Fnan
Fnan
Fnan
Fnan
Fnan
Fnan
Fnan
Fnan
Fnan
Fnan
Fnan
Fnan
Fnan
Fnan
Fnan
Fnan
Fnan
F5.391775131225586
F5.111579418182373
F4.945868015289307
F4.6839375495910645
F4.53410005569458
F4.36340856552124
F4.0119171142578125
F4.102619171142578
tp4
aa(lp5
F-1.5707963267948966
aF1.0
a(lp6
F6.000693460241081
aF0.006603322048671038
aF-0.0011307584955571603
aa(lp7
F-0.0027975929298557248
aF-0.0028570469687405867
aF-0.7067361934918188
aF0.707465874488029
aa(F2.202296733856201
F2.2738897800445557
F2.2502410411834717
F2.2687878608703613
Fnan
Fnan
Fnan
Fnan
Fnan
Fnan
Fnan
Fnan
Fnan
Fnan
Fnan
Fnan
Fnan
Fnan
Fnan
Fnan
Fnan
Fnan
Fnan
Fnan
Fnan
Fnan
Fnan
Fnan
Fnan
Fnan
Fnan
Fnan
Fnan
Fnan
Fnan
Fnan
Fnan
Fnan
Fnan
Fnan
Fnan
Fnan
Fnan
Fnan
Fnan
Fnan
F5.382105350494385
F5.283334255218506
F5.117430210113525
F4.711819171905518
F4.4653778076171875
F4.258694648742676
F4.149645805358887
F4.017514705657959
tp8
aa(lp9
F-1.5707963267948966
aF1.0
a(lp10
F6.0008006225457775
aF-0.993405690710656
aF-0.0011307217145626325
aa(lp11
F-0.0028106609869942034
aF-0.0028438985717528227
aF-0.7070379557745167
aF0.7071642959878013
aa(Fnan
Fnan
Fnan
Fnan
Fnan
Fnan
Fnan
Fnan
Fnan
Fnan
Fnan
Fnan
Fnan
Fnan
Fnan
Fnan
Fnan
Fnan
Fnan
Fnan
Fnan
Fnan
Fnan
Fnan
Fnan
Fnan
Fnan
Fnan
Fnan
Fnan
Fnan
Fnan
Fnan
Fnan
Fnan
Fnan
Fnan
Fnan
Fnan
Fnan
Fnan
Fnan
Fnan
Fnan
Fnan
Fnan
F5.389484405517578
F5.076507568359375
F4.863819122314453
F4.644796848297119
F4.501690864562988
F4.143881320953369
F4.315109729766846
F3.8206353187561035
tp12
aa(lp13
F-1.5707963267948966
aF1.0
a(lp14
F6.000884232804139
aF-1.9934127267808763
aF-0.001130720339612673
aa(lp15
F-0.002807662082778716
aF-0.0028469319697624835
aF-0.7072184625948345
aF0.7069837750450764
aa(Fnan
Fnan
Fnan
Fnan
Fnan
Fnan
Fnan
Fnan
Fnan
Fnan
Fnan
Fnan
Fnan
Fnan
Fnan
Fnan
Fnan
Fnan
Fnan
Fnan
Fnan
Fnan
Fnan
Fnan
Fnan
Fnan
Fnan
Fnan
Fnan
Fnan
Fnan
Fnan
Fnan
Fnan
Fnan
Fnan
Fnan
Fnan
Fnan
Fnan
Fnan
Fnan
Fnan
Fnan
Fnan
Fnan
F5.290719032287598
F5.22731351852417
F4.807530403137207
F4.561790943145752
F4.512661457061768
F4.385827541351318
F4.344618797302246
F4.058958053588867
tp16
aa(lp17
F-1.5707963267948966
aF1.0
a(lp18
F6.001040041494933
aF-2.993428985344925
aF-0.0011307337064904444
aa(lp19
F-0.0028061576645904635
aF-0.002848631023075725
aF-0.7067291734642066
aF0.7074728872225813
aa(F4.820729732513428
F4.744476795196533
F4.750897407531738
F4.54742431640625
F4.529343605041504
F4.2873215675354
F4.565207004547119
F4.424779415130615
F4.365657329559326
F4.132442951202393
F4.170932769775391
F4.223404407501221
F4.298941135406494
F4.3455424308776855
F4.232218265533447
F4.419722557067871
F4.2831711769104
F4.088023662567139
F4.225404739379883
F4.137712001800537
F4.107301712036133
F3.9154932498931885
F4.114871501922607
F4.131424903869629
F4.013526916503906
F4.176670074462891
F4.194191932678223
F4.109621047973633
F4.107571125030518
F4.149313449859619
Fnan
F4.140030384063721
F3.9206717014312744
Fnan
F4.194498062133789
F4.247446060180664
F4.124056339263916
F4.27700662612915
F4.091280937194824
F4.291251182556152
F4.2895073890686035
F4.32923698425293
F4.381630897521973
F4.1899895668029785
F4.317224502563477
F4.43031120300293
F4.297995090484619
F4.3626813888549805
F4.544307231903076
F4.576214790344238
F4.435528755187988
F4.383378982543945
F4.143015384674072
F3.9673268795013428
tp20
aa(lp21
F-1.5707963267948966
aF1.0
a(lp22
F6.001181779263786
aF-3.9934412609492687
aF-0.0011307548575271997
aa(lp23
F-0.002807878034704733
aF-0.0028468511064711184
aF-0.7075228448198816
aF0.7066791600986273
aa(F3.5446159839630127
F3.4794528484344482
F3.4925897121429443
F3.5329716205596924
F3.283477544784546
F3.4370005130767822
F3.3056533336639404
F3.4190571308135986
F3.359849214553833
F3.297339677810669
F3.159487247467041
F3.304304838180542
F3.2065956592559814
F3.2098937034606934
F3.230280637741089
F3.1559605598449707
F3.2151215076446533
F3.2463173866271973
F2.9979333877563477
F3.196542501449585
F3.1912472248077393
F3.1719696521759033
F3.1620452404022217
F3.05873966217041
F2.9996120929718018
F3.3037188053131104
F3.1724958419799805
F3.1846933364868164
F3.041123867034912
F3.137113094329834
Fnan
F3.167851686477661
F3.121241569519043
Fnan
F3.0161051750183105
F3.1027753353118896
F3.2129833698272705
F3.066547393798828
F3.2293648719787598
F3.2410106658935547
F3.224724292755127
F3.175612688064575
F3.2106144428253174
F3.2990758419036865
F3.2128703594207764
F3.374973773956299
F3.371706485748291
F3.29966139793396
F3.4956467151641846
F3.2678885459899902
F3.631699323654175
F3.4480957984924316
F3.4265363216400146
F3.457519054412842
tp24
aa(lp25
F-3.141592653589793
aF0.0
a(lp26
F6.00221439844006
aF-3.9935656877506256
aF-0.0011307444775296438
aa(lp27
F-0.003998501825368452
aF-4.761687879126869e-06
aF-0.9999918627079208
aF0.0005352367900765834
aa(F2.6479289531707764
F2.4077489376068115
F2.4655613899230957
F2.594430446624756
F2.6646645069122314
F2.7000348567962646
F2.8106980323791504
F2.7430951595306396
F2.820528030395508
F2.7613792419433594
F2.843109369277954
F2.911130428314209
F2.939911127090454
F3.1054279804229736
F2.825098991394043
F3.048707962036133
F3.2180087566375732
F3.2469191551208496
F3.1567795276641846
F3.5069775581359863
F3.364745855331421
F3.384552001953125
F3.621997833251953
F3.7824103832244873
F3.8053882122039795
F3.949525833129883
F4.031222343444824
Fnan
Fnan
Fnan
Fnan
Fnan
Fnan
Fnan
Fnan
Fnan
Fnan
Fnan
Fnan
Fnan
Fnan
Fnan
Fnan
Fnan
Fnan
Fnan
Fnan
Fnan
Fnan
Fnan
Fnan
Fnan
Fnan
Fnan
tp28
aa(lp29
F-3.141592653589793
aF1.0
a(lp30
F5.002200063966684
aF-3.9937540343080924
aF-0.0011307387463230234
aa(lp31
F-0.003998540750809264
aF-2.785059368059194e-05
aF-0.9999920016986011
aF-8.622663917726134e-05
aa(F2.016263961791992
F1.9239134788513184
F2.0775036811828613
F1.8881710767745972
F1.9870353937149048
F2.0300562381744385
F2.0677168369293213
F1.9148024320602417
F2.1350436210632324
F1.910760521888733
F2.357334852218628
F2.1487925052642822
F2.2075412273406982
F2.333409070968628
F2.3774969577789307
F2.402862071990967
F2.296456813812256
F2.327805519104004
F2.4317526817321777
F2.4956612586975098
F2.5553817749023438
F2.80810546875
F2.6587910652160645
F2.6209373474121094
F2.742279291152954
F2.9810070991516113
F3.088040590286255
Fnan
F5.0976433753967285
F4.745207786560059
Fnan
F4.73737096786499
F4.794949531555176
Fnan
F4.499026775360107
F4.361560821533203
F4.236406326293945
F4.3158159255981445
F4.09423303604126
Fnan
Fnan
Fnan
Fnan
Fnan
Fnan
Fnan
Fnan
Fnan
Fnan
Fnan
Fnan
Fnan
Fnan
Fnan
tp32
aa(lp33
F-3.141592653589793
aF1.0
a(lp34
F4.002190984299011
aF-3.993849641667269
aF-0.0011307140392324
aa(lp35
F-0.003998402171007228
aF-2.4156299376326105e-05
aF-0.9999920021600085
aF-8.838874161052353e-05
aa(F1.2347724437713623
F1.3942381143569946
F1.1378599405288696
F1.319525122642517
F1.1212056875228882
F1.2132185697555542
F1.2622191905975342
F1.2255879640579224
F1.384169578552246
F1.3823256492614746
F1.285231113433838
F1.5654200315475464
F1.4681591987609863
F1.4389177560806274
F1.6957285404205322
F1.5674172639846802
F1.6922155618667603
F1.617072343826294
F1.7904784679412842
F1.609660029411316
F1.9401789903640747
F1.9094516038894653
F1.9228320121765137
F1.86787748336792
F1.993529200553894
F2.0141396522521973
F2.117318868637085
F4.1599225997924805
F4.096343040466309
F3.991856575012207
Fnan
F3.7044034004211426
F3.588409423828125
Fnan
F3.5655481815338135
F3.6148853302001953
F3.4827158451080322
F3.4641239643096924
F3.464874744415283
F3.4187545776367188
F3.3343281745910645
F3.19976544380188
F3.268160343170166
Fnan
Fnan
Fnan
Fnan
Fnan
Fnan
Fnan
Fnan
Fnan
Fnan
Fnan
tp36
aa(lp37
F-1.5707963267948966
aF0.0
a(lp38
F4.00212923152237
aF-3.9946982316076025
aF-0.0011307597032512162
aa(lp39
F-0.0028009221405945308
aF-0.002853720773752711
aF-0.706727590760036
aF0.7074744684943923
aa(F3.5050296783447266
F3.646803617477417
F3.6031506061553955
F3.6103649139404297
F3.487215280532837
F3.395793914794922
F3.414541006088257
F3.2411043643951416
F3.293478488922119
F3.2447047233581543
F3.373746633529663
F3.3026416301727295
F3.3715033531188965
F3.1312103271484375
F3.0923893451690674
F3.182589292526245
F3.3934247493743896
F3.1703500747680664
F3.125295639038086
F3.2188031673431396
F3.025749683380127
F3.076429605484009
F3.0007007122039795
F3.1224405765533447
F3.0368778705596924
F3.016348123550415
F3.0235891342163086
F3.0462722778320312
F3.2738001346588135
F3.0594077110290527
Fnan
F3.029399871826172
F3.1209628582000732
Fnan
F3.1105105876922607
F3.282567024230957
F3.1169357299804688
F3.2755749225616455
F3.360586404800415
F3.2906289100646973
F3.253960132598877
F3.2764835357666016
F3.248429298400879
F3.3602890968322754
F3.308664560317993
F3.220015525817871
F3.46579909324646
F3.264692783355713
F3.4607291221618652
F3.370802879333496
F3.5070574283599854
F3.5801100730895996
F3.5601978302001953
F3.666569948196411
tp40
aa(lp41
F-1.5707963267948966
aF1.0
a(lp42
F4.002357080640824
aF-4.9947154998831556
aF-0.0011307216915917295
aa(lp43
F-0.0028101449302643956
aF-0.002844389905414082
aF-0.707181417869674
aF0.7070208304932567
aa(F2.4545035362243652
F2.3593978881835938
F2.2984323501586914
F2.320768356323242
F2.3257031440734863
F2.220038414001465
F2.397756576538086
F2.1959331035614014
F2.359309434890747
F2.1654183864593506
F2.04830002784729
F2.2787554264068604
F2.1829512119293213
F2.277507781982422
F2.122239828109741
F1.991837978363037
F2.249502182006836
F2.20320200920105
F2.2126407623291016
F2.0924367904663086
F2.1734390258789062
F2.12977933883667
F1.9458907842636108
F2.065781593322754
F2.0234270095825195
F2.0790603160858154
F2.1229140758514404
F2.0567972660064697
F2.0929853916168213
F2.2723073959350586
Fnan
F2.0703845024108887
F2.0767078399658203
Fnan
F2.1615588665008545
F2.1061336994171143
F2.134845733642578
F2.105748414993286
F1.9805176258087158
F2.344761610031128
F2.2035019397735596
F2.366588830947876
F2.210848808288574
F2.3097310066223145
F2.2525930404663086
F2.0479323863983154
F2.2019643783569336
F2.284327983856201
F2.0390470027923584
F2.250882863998413
F2.2509164810180664
F2.160433053970337
F2.50158953666687
F2.2527973651885986
tp44
aa(lp45
F-1.5707963267948966
aF0.0
a(lp46
F4.002683355355719
aF-4.994746510025563
aF-0.0011307159292333058
aa(lp47
F-0.0028076769084496717
aF-0.00284692900353879
aF-0.7072217354940371
aF0.7069805009973252
aa(F2.3958640098571777
F2.4202187061309814
F2.4458463191986084
F2.3982205390930176
F2.259352207183838
F2.3537638187408447
F2.1033952236175537
F2.0242860317230225
F2.236804246902466
F2.1827666759490967
F2.1338677406311035
F2.2751760482788086
F2.131200075149536
F1.9330753087997437
F2.140078544616699
F2.2903354167938232
F2.1009414196014404
F2.2064809799194336
F2.179851531982422
F2.1314544677734375
F2.037132740020752
F2.1075408458709717
F2.054569721221924
F1.9509752988815308
F2.1680898666381836
F1.9784446954727173
F2.2016124725341797
F2.2143311500549316
F1.8832913637161255
F2.2486467361450195
Fnan
F2.1068367958068848
F2.001636505126953
Fnan
F2.1774580478668213
F2.089993715286255
F2.325880527496338
F2.302009105682373
F2.1613900661468506
F2.1198976039886475
F2.1251113414764404
F2.3718631267547607
F1.9837123155593872
F2.3956539630889893
F2.215662956237793
F2.108006715774536
F2.2791054248809814
F2.4283485412597656
F2.4277617931365967
F2.3631629943847656
F2.4424736499786377
F2.3477795124053955
F2.4780657291412354
F2.4840822219848633
tp48
aa.