(lp0
(lp1
ccopy_reg
_reconstructor
p2
(cstd_msgs.msg._Float32
Float32
p3
c__builtin__
object
p4
Ntp5
Rp6
(lp7
F-1.5707963267948966
abag2
(g3
g4
Ntp8
Rp9
(lp10
F0.0
abag2
(cturtlebot_ctrl.srv._TurtleBotControl
TurtleBotControlResponse
p11
g4
Ntp12
Rp13
(lp14
g2
(cgazebo_msgs.msg._ModelState
ModelState
p15
g4
Ntp16
Rp17
(lp18
S'mobile_base'
p19
ag2
(cgeometry_msgs.msg._Pose
Pose
p20
g4
Ntp21
Rp22
(lp23
g2
(cgeometry_msgs.msg._Point
Point
p24
g4
Ntp25
Rp26
(lp27
F6.000327427873917
aF1.0060519737786238
aF-0.0011307216535794973
abag2
(cgeometry_msgs.msg._Quaternion
Quaternion
p28
g4
Ntp29
Rp30
(lp31
F-0.0028061549108565503
aF-0.0028484164261252704
aF-0.7072427402973415
aF0.7069594884540324
ababag2
(cgeometry_msgs.msg._Twist
Twist
p32
g4
Ntp33
Rp34
(lp35
g2
(cgeometry_msgs.msg._Vector3
Vector3
p36
g4
Ntp37
Rp38
(lp39
F0.00019127792581050083
aF-3.616210563563693e-05
aF3.761106505601834e-05
abag2
(g36
g4
Ntp40
Rp41
(lp42
F-0.0001565944417936967
aF1.1016184916691352e-05
aF-0.0003182545876038203
ababaS''
p43
abag2
(g3
g4
Ntp44
Rp45
(lp46
F-1.4132311344146729
abag2
(g3
g4
Ntp47
Rp48
(lp49
F0.0768749788403511
abag2
(cturtlebot_ctrl.msg._TurtleBotScan
TurtleBotScan
p50
g4
Ntp51
Rp52
(lp53
(F2.6690800189971924
F2.615133762359619
F2.659818172454834
F2.6688709259033203
F2.952090263366699
F2.8206114768981934
F2.9340341091156006
F2.8767242431640625
F3.0012621879577637
F3.1074535846710205
F3.2900123596191406
Fnan
Fnan
Fnan
Fnan
Fnan
Fnan
Fnan
Fnan
Fnan
Fnan
Fnan
Fnan
Fnan
Fnan
Fnan
Fnan
Fnan
Fnan
Fnan
Fnan
Fnan
Fnan
Fnan
Fnan
Fnan
F4.8615217208862305
F4.767309188842773
F4.958131313323975
F4.834136486053467
F4.572446823120117
F4.614678382873535
F4.58734130859375
F4.429430961608887
F4.393296241760254
F4.312662124633789
F4.371910095214844
F4.3517632484436035
F4.385244846343994
F4.361428737640381
F4.421506404876709
F4.189796447753906
F4.162919044494629
F4.2994608879089355
tp54
ababaa(lp55
g2
(g3
g4
Ntp56
Rp57
(lp58
F-1.5707963267948966
abag2
(g3
g4
Ntp59
Rp60
(lp61
F1.0
abag2
(g11
g4
Ntp62
Rp63
(lp64
g2
(g15
g4
Ntp65
Rp66
(lp67
S'mobile_base'
p68
ag2
(g20
g4
Ntp69
Rp70
(lp71
g2
(g24
g4
Ntp72
Rp73
(lp74
F6.000470501964772
aF0.006037765680257424
aF-0.0011307593299353103
abag2
(g28
g4
Ntp75
Rp76
(lp77
F-0.002811632503482381
aF-0.0028430777874136844
aF-0.707160305325427
aF0.7070419465656965
ababag2
(g32
g4
Ntp78
Rp79
(lp80
g2
(g36
g4
Ntp81
Rp82
(lp83
F0.0001611437320831746
aF-1.2812591462713374e-05
aF7.346514225252157e-06
abag2
(g36
g4
Ntp84
Rp85
(lp86
F-2.5305461216631102e-05
aF4.7045959326965e-05
aF-0.00033428666275158884
ababag43
abag2
(g3
g4
Ntp87
Rp88
(lp89
F-1.5806536674499512
abag2
(g3
g4
Ntp90
Rp91
(lp92
F1.1575160026550293
abag2
(g50
g4
Ntp93
Rp94
(lp95
(F2.1784842014312744
F2.1879594326019287
F2.2388103008270264
F2.3096566200256348
Fnan
Fnan
Fnan
Fnan
Fnan
Fnan
Fnan
Fnan
Fnan
Fnan
Fnan
Fnan
Fnan
Fnan
Fnan
Fnan
Fnan
Fnan
Fnan
Fnan
Fnan
Fnan
Fnan
Fnan
F4.991366386413574
F4.863388538360596
Fnan
F4.536581516265869
F4.441865921020508
Fnan
F4.3908281326293945
F4.309892654418945
F4.28259801864624
F4.177830219268799
F3.8972091674804688
F3.9565675258636475
F3.855958938598633
F4.047253131866455
F3.7830092906951904
F3.8685531616210938
F3.7567434310913086
F3.6221721172332764
F3.4819228649139404
F3.700565814971924
F3.5420663356781006
F3.6086297035217285
F3.5682034492492676
F3.4962050914764404
F3.46944522857666
F3.305136203765869
tp96
ababaa(lp97
g2
(g3
g4
Ntp98
Rp99
(lp100
F-1.5707963267948966
abag2
(g3
g4
Ntp101
Rp102
(lp103
F1.0
abag2
(g11
g4
Ntp104
Rp105
(lp106
g2
(g15
g4
Ntp107
Rp108
(lp109
S'mobile_base'
p110
ag2
(g20
g4
Ntp111
Rp112
(lp113
g2
(g24
g4
Ntp114
Rp115
(lp116
F6.0005309504245785
aF-0.993966053072399
aF-0.0011307605644395868
abag2
(g28
g4
Ntp117
Rp118
(lp119
F-0.0028099316789728414
aF-0.0028447612225737276
aF-0.7072195684243258
aF0.7069826685678061
ababag2
(g32
g4
Ntp120
Rp121
(lp122
g2
(g36
g4
Ntp123
Rp124
(lp125
F0.00035122431833169696
aF-1.5580394143884227e-05
aF7.3109605649249435e-06
abag2
(g36
g4
Ntp126
Rp127
(lp128
F-2.5371945910020374e-05
aF-0.0011058784368653035
aF-0.0005257236507864756
ababag43
abag2
(g3
g4
Ntp129
Rp130
(lp131
F-1.5350573062896729
abag2
(g3
g4
Ntp132
Rp133
(lp134
F0.9585357904434204
abag2
(g50
g4
Ntp135
Rp136
(lp137
(Fnan
Fnan
Fnan
Fnan
Fnan
Fnan
F5.182929992675781
F5.2729644775390625
F5.153867721557617
F5.061725616455078
F5.096020221710205
F4.853226661682129
F4.813045024871826
F4.869888782501221
F4.718255519866943
F4.686464786529541
F4.6326446533203125
F4.6527276039123535
F4.443991661071777
F4.332058906555176
F4.313581466674805
F4.2577033042907715
F4.302223205566406
F4.184309482574463
F4.109885215759277
F4.112344741821289
F4.0497212409973145
F4.023240566253662
F4.09783935546875
F3.8111329078674316
Fnan
F3.88238263130188
F3.9296751022338867
Fnan
F3.513413906097412
F3.5205748081207275
F3.292642116546631
F3.337749481201172
F3.2246875762939453
F3.1454474925994873
F3.2344274520874023
F2.958979845046997
F2.975450038909912
F3.058835983276367
F2.9390504360198975
F2.9019434452056885
F3.1200814247131348
F2.920745372772217
F2.7292652130126953
F2.9345524311065674
F2.9482979774475098
F2.9442412853240967
F2.6771297454833984
F2.7594823837280273
tp138
ababaa(lp139
g2
(g3
g4
Ntp140
Rp141
(lp142
F-1.5707963267948966
abag2
(g3
g4
Ntp143
Rp144
(lp145
F1.0
abag2
(g11
g4
Ntp146
Rp147
(lp148
g2
(g15
g4
Ntp149
Rp150
(lp151
S'mobile_base'
p152
ag2
(g20
g4
Ntp153
Rp154
(lp155
g2
(g24
g4
Ntp156
Rp157
(lp158
F6.000647858885416
aF-1.9939751254111997
aF-0.0011311160012329735
abag2
(g28
g4
Ntp159
Rp160
(lp161
F-0.002845144485101502
aF-0.002808951809947756
aF-0.707479457686128
aF0.7067225989698721
ababag2
(g32
g4
Ntp162
Rp163
(lp164
g2
(g36
g4
Ntp165
Rp166
(lp167
F0.0004069282723846906
aF-9.902418959833005e-06
aF-4.548782481637003e-05
abag2
(g36
g4
Ntp168
Rp169
(lp170
F-2.7398593353468106e-05
aF-0.0014169378932745046
aF-0.0005662022748689332
ababag43
abag2
(g3
g4
Ntp171
Rp172
(lp173
F-1.6961451768875122
abag2
(g3
g4
Ntp174
Rp175
(lp176
F0.9204367399215698
abag2
(g50
g4
Ntp177
Rp178
(lp179
(F4.540804386138916
F4.491823196411133
F4.345200061798096
F4.327670574188232
F4.4755730628967285
F4.153491973876953
F4.0567779541015625
F4.074755668640137
F3.9990897178649902
F3.837714910507202
F3.8446884155273438
F3.6493887901306152
F3.412299871444702
F3.690037965774536
F3.5853734016418457
F3.388319492340088
F3.4098308086395264
F3.3383185863494873
F3.439680576324463
F3.2168564796447754
F3.288527250289917
F3.3057620525360107
F3.357029676437378
F3.1028568744659424
F3.320669174194336
F3.1079330444335938
F3.349205493927002
F2.9523701667785645
F2.990633964538574
F2.9426021575927734
Fnan
F2.831594944000244
F2.8492109775543213
Fnan
F2.809918165206909
F2.4844541549682617
F2.470317840576172
F2.351754665374756
F2.5673911571502686
F2.425017833709717
F2.645758867263794
F2.2164459228515625
F2.418365240097046
F2.3117613792419434
F2.338982582092285
F2.445507764816284
F2.2446112632751465
F2.146760940551758
F2.2122859954833984
F2.2504372596740723
F2.1137001514434814
F2.1183156967163086
F2.080406665802002
F2.086120843887329
tp180
ababaa(lp181
g2
(g3
g4
Ntp182
Rp183
(lp184
F-2.356194490192345
abag2
(g3
g4
Ntp185
Rp186
(lp187
F0.0
abag2
(g11
g4
Ntp188
Rp189
(lp190
g2
(g15
g4
Ntp191
Rp192
(lp193
S'mobile_base'
p194
ag2
(g20
g4
Ntp195
Rp196
(lp197
g2
(g24
g4
Ntp198
Rp199
(lp200
F6.001043529447467
aF-1.9940281992555862
aF-0.0011307207635028182
abag2
(g28
g4
Ntp201
Rp202
(lp203
F-0.0036836328610889003
aF-0.0015552314714971384
aF-0.9238997771040134
aF0.3826136615061847
ababag2
(g32
g4
Ntp204
Rp205
(lp206
g2
(g36
g4
Ntp207
Rp208
(lp209
F5.458076275209779e-05
aF-0.00010656273591378214
aF3.7666621213070007e-05
abag2
(g36
g4
Ntp210
Rp211
(lp212
F0.00028646822426836935
aF0.000511237374584007
aF-0.0002358334677249067
ababag43
abag2
(g3
g4
Ntp213
Rp214
(lp215
F-2.559095859527588
abag2
(g3
g4
Ntp216
Rp217
(lp218
F-0.09744717180728912
abag2
(g50
g4
Ntp219
Rp220
(lp221
(F1.1432024240493774
F1.2521296739578247
F1.4192239046096802
F1.348570704460144
F1.4976325035095215
F1.3825794458389282
F1.5285896062850952
F1.5086030960083008
F1.5160466432571411
F1.3619146347045898
F1.4165278673171997
F1.5632948875427246
F1.4857134819030762
F1.5427500009536743
F1.5119179487228394
F1.7676209211349487
F1.904028058052063
F1.8115636110305786
F2.028059720993042
F2.019177198410034
F2.2043697834014893
F2.2121036052703857
F2.1621696949005127
F2.423204183578491
F2.5216619968414307
F2.6212470531463623
F2.795405626296997
Fnan
Fnan
Fnan
Fnan
Fnan
Fnan
Fnan
Fnan
Fnan
F5.176651477813721
F4.913207530975342
F4.74229097366333
F4.762468338012695
F4.439249515533447
F4.355338096618652
F4.437985420227051
F4.2602057456970215
F4.365646839141846
F4.0150909423828125
F4.062296390533447
F3.9216148853302
F4.003176689147949
F3.769002914428711
F3.7606747150421143
F3.6847689151763916
F3.617419719696045
F3.6707851886749268
tp222
ababaa(lp223
g2
(g3
g4
Ntp224
Rp225
(lp226
F-2.356194490192345
abag2
(g3
g4
Ntp227
Rp228
(lp229
F1.0
abag2
(g11
g4
Ntp230
Rp231
(lp232
g2
(g15
g4
Ntp233
Rp234
(lp235
S'mobile_base'
p236
ag2
(g20
g4
Ntp237
Rp238
(lp239
g2
(g24
g4
Ntp240
Rp241
(lp242
F5.2940493954966685
aF-2.701270686594664
aF-0.0011307504470625118
abag2
(g28
g4
Ntp243
Rp244
(lp245
F-0.0036850308564057768
aF-0.0015521264824289844
aF-0.9239413434120107
aF0.3825132747826915
ababag2
(g32
g4
Ntp246
Rp247
(lp248
g2
(g36
g4
Ntp249
Rp250
(lp251
F0.00011856696122388453
aF-0.0001512984975797282
aF7.291643051935638e-06
abag2
(g36
g4
Ntp252
Rp253
(lp254
F-0.00013720866502348728
aF-0.00010087790455131036
aF-0.00038780999285265976
ababag43
abag2
(g3
g4
Ntp255
Rp256
(lp257
F-2.3684139251708984
abag2
(g3
g4
Ntp258
Rp259
(lp260
F1.021884560585022
abag2
(g50
g4
Ntp261
Rp262
(lp263
(F0.7560644149780273
F0.708674967288971
F0.5370003581047058
F0.7753683924674988
F0.7683665752410889
F0.9041017889976501
F0.8502394556999207
F0.7519333958625793
F1.2121124267578125
F1.0120853185653687
F0.939749002456665
F0.9333851933479309
F1.1651134490966797
F1.1222656965255737
F1.0301834344863892
F1.087925672531128
F1.1505992412567139
F1.1853610277175903
F1.2548631429672241
F1.2902600765228271
F1.5789612531661987
F1.3037238121032715
F1.5574408769607544
F1.555883526802063
F1.602683186531067
F1.7235398292541504
F1.9893989562988281
Fnan
Fnan
Fnan
Fnan
Fnan
F4.851252555847168
Fnan
F4.580293655395508
F4.685483455657959
F4.320414066314697
F4.160221099853516
F4.063915252685547
F4.013071060180664
F4.057518482208252
F3.8534271717071533
F3.6440179347991943
F3.6431758403778076
F3.5193874835968018
F3.5151169300079346
F3.4342451095581055
F3.451655149459839
F3.2706282138824463
F3.3404781818389893
F3.054760694503784
F3.269089698791504
F3.1090898513793945
F3.22111439704895
tp264
ababaa(lp265
g2
(g3
g4
Ntp266
Rp267
(lp268
F-1.5707963267948966
abag2
(g3
g4
Ntp269
Rp270
(lp271
F0.0
abag2
(g11
g4
Ntp272
Rp273
(lp274
g2
(g15
g4
Ntp275
Rp276
(lp277
S'mobile_base'
p278
ag2
(g20
g4
Ntp279
Rp280
(lp281
g2
(g24
g4
Ntp282
Rp283
(lp284
F5.294634477306262
aF-2.7019482500039262
aF-0.0011307348454736021
abag2
(g28
g4
Ntp285
Rp286
(lp287
F-0.0028064860567443644
aF-0.0028483324358945755
aF-0.7071497022834626
aF0.7070525505213585
ababag2
(g32
g4
Ntp288
Rp289
(lp290
g2
(g36
g4
Ntp291
Rp292
(lp293
F0.00023252854289155584
aF-1.106241656141314e-05
aF1.2467895935982543e-05
abag2
(g36
g4
Ntp294
Rp295
(lp296
F-1.7166703084901264e-05
aF-0.0007159493104274468
aF-0.00041300877349093317
ababag43
abag2
(g3
g4
Ntp297
Rp298
(lp299
F-1.5761792659759521
abag2
(g3
g4
Ntp300
Rp301
(lp302
F0.08330647647380829
abag2
(g50
g4
Ntp303
Rp304
(lp305
(F4.1382670402526855
F3.9881935119628906
F3.6888387203216553
F3.732703685760498
F3.6162171363830566
F3.4891891479492188
F3.490895986557007
F3.350206136703491
F3.3728575706481934
F3.321061611175537
F3.3679559230804443
F3.3226215839385986
F3.2070679664611816
F3.183176040649414
F3.1069416999816895
F2.9873366355895996
F2.910315752029419
F2.9414424896240234
F2.931053400039673
F2.8528125286102295
F2.677905321121216
F2.802057981491089
F2.73868465423584
F2.8987276554107666
F2.7232706546783447
F2.691619634628296
F2.6614084243774414
F2.672107219696045
F2.6243367195129395
F2.5853307247161865
Fnan
F2.6328821182250977
F2.5945401191711426
Fnan
F2.468252182006836
F2.5894644260406494
F2.546112298965454
F2.5455715656280518
F2.5038135051727295
F2.4164047241210938
F2.5685386657714844
F2.7155563831329346
F2.525622844696045
F2.3994877338409424
F2.491445779800415
F2.4565157890319824
F2.415621519088745
F2.351166009902954
F2.2537968158721924
F2.2240638732910156
F2.297342538833618
F2.2989108562469482
F2.2039079666137695
F2.307424306869507
tp306
ababaa(lp307
g2
(g3
g4
Ntp308
Rp309
(lp310
F-1.5707963267948966
abag2
(g3
g4
Ntp311
Rp312
(lp313
F1.0
abag2
(g11
g4
Ntp314
Rp315
(lp316
g2
(g15
g4
Ntp317
Rp318
(lp319
S'mobile_base'
p320
ag2
(g20
g4
Ntp321
Rp322
(lp323
g2
(g24
g4
Ntp324
Rp325
(lp326
F5.294724863238449
aF-3.7019571709609336
aF-0.0011307455226058083
abag2
(g28
g4
Ntp327
Rp328
(lp329
F-0.0027971696304118347
aF-0.0028575911004668428
aF-0.7071482054057137
aF0.7070540471609225
ababag2
(g32
g4
Ntp330
Rp331
(lp332
g2
(g36
g4
Ntp333
Rp334
(lp335
F0.0002323301328884348
aF-1.020703759023046e-05
aF1.2058615598391832e-05
abag2
(g36
g4
Ntp336
Rp337
(lp338
F-1.6671559407111098e-05
aF-0.0005740930048176632
aF-0.0003966220635321101
ababag43
abag2
(g3
g4
Ntp339
Rp340
(lp341
F-1.655922770500183
abag2
(g3
g4
Ntp342
Rp343
(lp344
F1.0982576608657837
abag2
(g50
g4
Ntp345
Rp346
(lp347
(F2.3753244876861572
F2.5382890701293945
F2.2822265625
F2.2847166061401367
F2.2768845558166504
F2.257246732711792
F2.1496078968048096
F2.009982109069824
F2.2673046588897705
F2.1012465953826904
F1.948127269744873
F1.998958945274353
F1.9909656047821045
F1.8034684658050537
F2.0352137088775635
F1.9775640964508057
F1.7247806787490845
F1.7434563636779785
F1.6295526027679443
F1.797454595565796
F1.8451547622680664
F1.7234899997711182
F1.6872844696044922
F1.5170434713363647
F1.84757661819458
F1.606932282447815
F1.743800163269043
F1.8222280740737915
F1.7221380472183228
F1.6383529901504517
Fnan
F1.6289249658584595
F1.6387275457382202
Fnan
F1.5391370058059692
F1.4851938486099243
F1.4989932775497437
F1.4948235750198364
F1.522472620010376
F1.441631555557251
F1.4927879571914673
F1.4898221492767334
F1.558560848236084
F1.4899073839187622
F1.649932622909546
F1.5189788341522217
F1.430600643157959
F1.5962005853652954
F1.5248656272888184
F1.511293888092041
F1.618301510810852
F1.6898486614227295
F1.5207918882369995
F1.5568233728408813
tp348
ababaa(lp349
g2
(g3
g4
Ntp350
Rp351
(lp352
F-2.356194490192345
abag2
(g3
g4
Ntp353
Rp354
(lp355
F0.0
abag2
(g11
g4
Ntp356
Rp357
(lp358
g2
(g15
g4
Ntp359
Rp360
(lp361
S'mobile_base'
p362
ag2
(g20
g4
Ntp363
Rp364
(lp365
g2
(g24
g4
Ntp366
Rp367
(lp368
F5.295399384779207
aF-3.7020366321379363
aF-0.001130991041231516
abag2
(g28
g4
Ntp369
Rp370
(lp371
F-0.0036833624076433634
aF-0.0015538584909326005
aF-0.9238373249728237
aF0.3827644384634254
ababag2
(g32
g4
Ntp372
Rp373
(lp374
g2
(g36
g4
Ntp375
Rp376
(lp377
F2.6668735474550575e-05
aF-2.6014230600914325e-06
aF-1.3004012190679269e-05
abag2
(g36
g4
Ntp378
Rp379
(lp380
F0.0008982953246472902
aF0.0006486191978727776
aF-0.00015746051346818412
ababag43
abag2
(g3
g4
Ntp381
Rp382
(lp383
F-2.4574618339538574
abag2
(g3
g4
Ntp384
Rp385
(lp386
F-0.0669734850525856
abag2
(g50
g4
Ntp387
Rp388
(lp389
(F5.697695732116699
Fnan
Fnan
Fnan
Fnan
Fnan
Fnan
Fnan
Fnan
Fnan
Fnan
Fnan
Fnan
Fnan
Fnan
Fnan
Fnan
Fnan
Fnan
Fnan
Fnan
Fnan
F4.983394145965576
F4.5541510581970215
F4.308413982391357
F4.222134590148926
F3.951535224914551
F3.7753617763519287
F3.441845655441284
F3.3835387229919434
Fnan
F3.1784281730651855
F3.0679404735565186
Fnan
F2.7311854362487793
F2.5931270122528076
F2.7099013328552246
F2.660038709640503
F2.5890092849731445
F2.62524151802063
F2.355051040649414
F2.4652109146118164
F2.3779056072235107
F2.096817970275879
F2.390911340713501
F2.197248935699463
F1.941935420036316
F2.2707674503326416
F2.061185836791992
F1.8216646909713745
F2.172022581100464
F2.1684157848358154
F1.877762794494629
F1.7871122360229492
tp390
ababaa(lp391
g2
(g3
g4
Ntp392
Rp393
(lp394
F-2.356194490192345
abag2
(g3
g4
Ntp395
Rp396
(lp397
F1.0
abag2
(g11
g4
Ntp398
Rp399
(lp400
g2
(g15
g4
Ntp401
Rp402
(lp403
S'mobile_base'
p404
ag2
(g20
g4
Ntp405
Rp406
(lp407
g2
(g24
g4
Ntp408
Rp409
(lp410
F4.58837027213092
aF-4.409239707656113
aF-0.0011307460165214944
abag2
(g28
g4
Ntp411
Rp412
(lp413
F-0.0036834124277635868
aF-0.0015560348863448705
aF-0.9236623493482757
aF0.3831864763072197
ababag2
(g32
g4
Ntp414
Rp415
(lp416
g2
(g36
g4
Ntp417
Rp418
(lp419
F0.00014107553141993486
aF-0.00016177157105953064
aF1.240629309101601e-05
abag2
(g36
g4
Ntp420
Rp421
(lp422
F-0.00041207157358583407
aF-0.00038961605282147513
aF-0.00034799324363184023
ababag43
abag2
(g3
g4
Ntp423
Rp424
(lp425
F-2.349851608276367
abag2
(g3
g4
Ntp426
Rp427
(lp428
F1.1058688163757324
abag2
(g50
g4
Ntp429
Rp430
(lp431
(F5.648242473602295
Fnan
Fnan
Fnan
Fnan
Fnan
Fnan
Fnan
Fnan
Fnan
Fnan
Fnan
Fnan
Fnan
Fnan
Fnan
Fnan
Fnan
Fnan
F4.279617786407471
F4.232738494873047
F3.8420379161834717
F3.4760265350341797
F3.4061930179595947
F3.1323704719543457
F3.030172109603882
F2.8432273864746094
F2.9286086559295654
F2.599292039871216
F2.5559651851654053
Fnan
F2.200958490371704
F2.2538905143737793
Fnan
F2.0255517959594727
F2.089505434036255
F1.9042974710464478
F1.9264883995056152
F1.8194559812545776
F1.8611395359039307
F1.7314401865005493
F1.7937874794006348
F1.4380712509155273
F1.5913639068603516
F1.7160544395446777
F1.4947519302368164
F1.641728401184082
F1.5809084177017212
F1.5931813716888428
F1.6044669151306152
F1.5947413444519043
F1.3783727884292603
F1.5626288652420044
F1.50832200050354
tp432
ababaa(lp433
g2
(g3
g4
Ntp434
Rp435
(lp436
F-3.141592653589793
abag2
(g3
g4
Ntp437
Rp438
(lp439
F0.0
abag2
(g11
g4
Ntp440
Rp441
(lp442
g2
(g15
g4
Ntp443
Rp444
(lp445
S'mobile_base'
p446
ag2
(g20
g4
Ntp447
Rp448
(lp449
g2
(g24
g4
Ntp450
Rp451
(lp452
F4.588931425526685
aF-4.409948439718113
aF-0.001130992045911855
abag2
(g28
g4
Ntp453
Rp454
(lp455
F-0.003997618991805535
aF-2.2652930199344857e-05
aF-0.9999920064706016
aF7.432456792777852e-05
ababag2
(g32
g4
Ntp456
Rp457
(lp458
g2
(g36
g4
Ntp459
Rp460
(lp461
F7.72586780259489e-06
aF0.0002455809016035691
aF-1.1276145093488275e-05
abag2
(g36
g4
Ntp462
Rp463
(lp464
F0.003309829664194423
aF-0.00017151563424080258
aF0.00013193580920700283
ababag43
abag2
(g3
g4
Ntp465
Rp466
(lp467
F-3.1008410453796387
abag2
(g3
g4
Ntp468
Rp469
(lp470
F0.0079039940610528
abag2
(g50
g4
Ntp471
Rp472
(lp473
(F5.573057174682617
F5.306792736053467
F5.28523063659668
F5.2974653244018555
Fnan
Fnan
Fnan
Fnan
Fnan
Fnan
Fnan
Fnan
Fnan
Fnan
Fnan
Fnan
Fnan
Fnan
Fnan
Fnan
Fnan
Fnan
Fnan
Fnan
Fnan
Fnan
Fnan
Fnan
Fnan
Fnan
Fnan
Fnan
Fnan
Fnan
F4.9325995445251465
F5.174440383911133
Fnan
Fnan
Fnan
Fnan
Fnan
Fnan
Fnan
Fnan
Fnan
Fnan
Fnan
Fnan
Fnan
Fnan
Fnan
Fnan
Fnan
Fnan
tp474
ababaa(lp475
g2
(g3
g4
Ntp476
Rp477
(lp478
F-3.141592653589793
abag2
(g3
g4
Ntp479
Rp480
(lp481
F1.0
abag2
(g11
g4
Ntp482
Rp483
(lp484
g2
(g15
g4
Ntp485
Rp486
(lp487
S'mobile_base'
p488
ag2
(g20
g4
Ntp489
Rp490
(lp491
g2
(g24
g4
Ntp492
Rp493
(lp494
F3.5889236057292955
aF-4.410035019722524
aF-0.0011307429173120498
abag2
(g28
g4
Ntp495
Rp496
(lp497
F-0.003998548329723564
aF-3.232381544689058e-05
aF-0.9999920032548066
aF-6.31891165650617e-05
ababag2
(g32
g4
Ntp498
Rp499
(lp500
g2
(g36
g4
Ntp501
Rp502
(lp503
F-8.41620396550856e-06
aF-0.00015837797846951957
aF1.2412260333525356e-05
abag2
(g36
g4
Ntp504
Rp505
(lp506
F-0.0005030150841573551
aF1.69707474988953e-05
aF-0.0003258882329938227
ababag43
abag2
(g3
g4
Ntp507
Rp508
(lp509
F-3.082592487335205
abag2
(g3
g4
Ntp510
Rp511
(lp512
F0.9854493737220764
abag2
(g50
g4
Ntp513
Rp514
(lp515
(F5.030292510986328
F5.050033092498779
Fnan
Fnan
Fnan
Fnan
Fnan
Fnan
Fnan
Fnan
Fnan
Fnan
Fnan
Fnan
Fnan
Fnan
Fnan
Fnan
Fnan
Fnan
Fnan
Fnan
Fnan
Fnan
Fnan
Fnan
Fnan
Fnan
Fnan
Fnan
Fnan
Fnan
Fnan
Fnan
Fnan
F3.782944679260254
F3.845219850540161
F4.006475925445557
F4.186562538146973
F4.152592182159424
F4.277284622192383
F4.61467170715332
F4.594719886779785
F4.898918151855469
F5.026654243469238
F5.202065944671631
Fnan
Fnan
Fnan
Fnan
Fnan
Fnan
Fnan
Fnan
tp516
ababaa(lp517
g2
(g3
g4
Ntp518
Rp519
(lp520
F1.5707963267948966
abag2
(g3
g4
Ntp521
Rp522
(lp523
F0.0
abag2
(g11
g4
Ntp524
Rp525
(lp526
g2
(g15
g4
Ntp527
Rp528
(lp529
S'mobile_base'
p530
ag2
(g20
g4
Ntp531
Rp532
(lp533
g2
(g24
g4
Ntp534
Rp535
(lp536
F3.588804816951993
aF-4.410988970006015
aF-0.0011307389422939573
abag2
(g28
g4
Ntp537
Rp538
(lp539
F0.002851688630090502
aF-0.0028030736018914257
aF0.7074830117223831
aF0.7067190380728157
ababag2
(g32
g4
Ntp540
Rp541
(lp542
g2
(g36
g4
Ntp543
Rp544
(lp545
F-0.00021695296192862998
aF1.2712173689542635e-05
aF1.2312322414736283e-05
abag2
(g36
g4
Ntp546
Rp547
(lp548
F1.6501225328702986e-05
aF0.00028512022017640075
aF-0.0003981959084160238
ababag43
abag2
(g3
g4
Ntp549
Rp550
(lp551
F1.6111289262771606
abag2
(g3
g4
Ntp552
Rp553
(lp554
F-0.028516363352537155
abag2
(g50
g4
Ntp555
Rp556
(lp557
(F0.8306790590286255
F0.7670919895172119
F0.9255723357200623
F0.7527726888656616
F0.7508806586265564
F0.8191790580749512
F0.7744248509407043
F0.9160891175270081
F0.9881001710891724
F0.8845160007476807
F1.1751655340194702
F1.1197245121002197
F1.197985291481018
F1.0904227495193481
F1.185214638710022
F1.286041021347046
F1.4582197666168213
F1.2033239603042603
F1.4493638277053833
F1.5250648260116577
F1.581019401550293
F1.7785494327545166
F2.0410845279693604
F2.062765598297119
F2.2617406845092773
F2.424844264984131
F2.7532119750976562
F2.9062626361846924
F3.620713472366333
F4.142930507659912
Fnan
Fnan
Fnan
Fnan
Fnan
Fnan
Fnan
Fnan
Fnan
Fnan
Fnan
Fnan
Fnan
F5.155068397521973
F4.606510639190674
F4.293829917907715
F4.178620338439941
F4.1394734382629395
F4.0430803298950195
F3.759721517562866
F3.601816177368164
F3.366609811782837
F3.379585027694702
F3.259075403213501
tp558
ababaa(lp559
g2
(g3
g4
Ntp560
Rp561
(lp562
F1.5707963267948966
abag2
(g3
g4
Ntp563
Rp564
(lp565
F1.0
abag2
(g11
g4
Ntp566
Rp567
(lp568
g2
(g15
g4
Ntp569
Rp570
(lp571
S'mobile_base'
p572
ag2
(g20
g4
Ntp573
Rp574
(lp575
g2
(g24
g4
Ntp576
Rp577
(lp578
F3.588653447917253
aF-3.410975446222244
aF-0.0011307598804454755
abag2
(g28
g4
Ntp579
Rp580
(lp581
F0.0028550605444628515
aF-0.002799617034537245
aF0.707050648999164
aF0.7071516036350397
ababag2
(g32
g4
Ntp582
Rp583
(lp584
g2
(g36
g4
Ntp585
Rp586
(lp587
F-0.00030340596747446065
aF1.4904522347007533e-05
aF6.945268450176753e-06
abag2
(g36
g4
Ntp588
Rp589
(lp590
F2.493048657499007e-05
aF0.0010327172776403537
aF-0.00046661689757800974
ababag43
abag2
(g3
g4
Ntp591
Rp592
(lp593
F1.5539517402648926
abag2
(g3
g4
Ntp594
Rp595
(lp596
F0.9864336848258972
abag2
(g50
g4
Ntp597
Rp598
(lp599
(F0.44505807757377625
F0.7103472948074341
F0.5871930122375488
F0.7904714345932007
F0.481585294008255
F0.5782987475395203
F0.5936797261238098
F0.7127559185028076
F0.6458784937858582
F0.7401156425476074
F0.5412048101425171
F0.9611644744873047
F0.6364350914955139
F0.6607618927955627
F0.7539853453636169
F0.9096609354019165
F0.8261048793792725
F0.8442407250404358
F0.9389855861663818
F1.129666805267334
F0.899642288684845
F1.1238141059875488
F1.155869960784912
F1.224952220916748
F1.4694974422454834
F1.576918363571167
F1.772186279296875
F2.0061075687408447
F2.2162671089172363
F2.8781282901763916
Fnan
F4.0180511474609375
Fnan
Fnan
Fnan
Fnan
Fnan
Fnan
Fnan
Fnan
Fnan
Fnan
Fnan
F4.881825923919678
F4.911766529083252
F4.657646179199219
F4.079818248748779
F4.107919216156006
F3.721395969390869
F3.6069130897521973
F3.4787023067474365
F3.44118332862854
F3.4195892810821533
F3.2844059467315674
tp600
ababaa(lp601
g2
(g3
g4
Ntp602
Rp603
(lp604
F2.356194490192345
abag2
(g3
g4
Ntp605
Rp606
(lp607
F0.0
abag2
(g11
g4
Ntp608
Rp609
(lp610
g2
(g15
g4
Ntp611
Rp612
(lp613
S'mobile_base'
p614
ag2
(g20
g4
Ntp615
Rp616
(lp617
g2
(g24
g4
Ntp618
Rp619
(lp620
F3.5881297217081305
aF-3.4109373576855804
aF-0.001130752034540633
abag2
(g28
g4
Ntp621
Rp622
(lp623
F0.0036896323362502754
aF-0.0015408351872803296
aF0.9238414541802941
aF0.3827544643478227
ababag2
(g32
g4
Ntp624
Rp625
(lp626
g2
(g36
g4
Ntp627
Rp628
(lp629
F-0.00040107404024820143
aF-0.00036948767709311275
aF4.707833663990386e-05
abag2
(g36
g4
Ntp630
Rp631
(lp632
F-0.001593979635560782
aF0.0017048033841359509
aF-0.0007327012856437046
ababag43
abag2
(g3
g4
Ntp633
Rp634
(lp635
F2.411083936691284
abag2
(g3
g4
Ntp636
Rp637
(lp638
F0.13729724287986755
abag2
(g50
g4
Ntp639
Rp640
(lp641
(Fnan
Fnan
F5.6065754890441895
F5.27812385559082
F4.956443786621094
F4.552975654602051
F4.3860764503479
F4.292318820953369
F4.010212421417236
F4.02573823928833
F3.8079705238342285
F3.6551313400268555
F3.291625738143921
F3.3241071701049805
F3.2867441177368164
F3.2958853244781494
F3.1257500648498535
F2.9657304286956787
F2.9018735885620117
F2.722593307495117
F2.705366849899292
F2.5972633361816406
F2.578458070755005
F2.6680350303649902
F2.4588053226470947
F2.432964563369751
F2.382906198501587
F2.3020243644714355
F2.3779687881469727
F2.2336599826812744
Fnan
Fnan
Fnan
Fnan
Fnan
Fnan
Fnan
F4.45951509475708
F4.331051349639893
F4.314438343048096
F4.230213642120361
F4.186617851257324
F4.177673816680908
F3.926013708114624
F4.103425025939941
F4.040947437286377
F3.8582980632781982
F3.960707426071167
F4.287301540374756
F4.69871711730957
F5.145144462585449
Fnan
Fnan
Fnan
tp642
ababaa(lp643
g2
(g3
g4
Ntp644
Rp645
(lp646
F2.356194490192345
abag2
(g3
g4
Ntp647
Rp648
(lp649
F1.0
abag2
(g11
g4
Ntp650
Rp651
(lp652
g2
(g15
g4
Ntp653
Rp654
(lp655
S'mobile_base'
p656
ag2
(g20
g4
Ntp657
Rp658
(lp659
g2
(g24
g4
Ntp660
Rp661
(lp662
F2.8808799405285987
aF-2.7039505984579377
aF-0.0011307409818404612
abag2
(g28
g4
Ntp663
Rp664
(lp665
F0.003707126693411781
aF-0.001498903516475404
aF0.9238380137045501
aF0.3827627658672655
ababag2
(g32
g4
Ntp666
Rp667
(lp668
g2
(g36
g4
Ntp669
Rp670
(lp671
F-0.000170327404997424
aF-0.00015033016930536062
aF1.2307259141151469e-05
abag2
(g36
g4
Ntp672
Rp673
(lp674
F-0.00022285331117970783
aF0.0002467561641303389
aF-0.0004494289029695131
ababag43
abag2
(g3
g4
Ntp675
Rp676
(lp677
F2.5342791080474854
abag2
(g3
g4
Ntp678
Rp679
(lp680
F0.8753184080123901
abag2
(g50
g4
Ntp681
Rp682
(lp683
(F3.6394641399383545
F3.3235228061676025
F3.3038077354431152
F3.031327247619629
F2.728431224822998
F2.650535821914673
F2.4808123111724854
F2.31775164604187
F2.33544921875
F2.0509026050567627
F2.0480408668518066
F2.162219762802124
F1.923269510269165
F1.7452431917190552
F1.9025760889053345
F1.6641345024108887
F1.781390905380249
F1.681929349899292
F1.500327229499817
F1.6361193656921387
F1.5901812314987183
F1.6793780326843262
F1.4539496898651123
F1.374186396598816
F1.4893579483032227
F1.3079358339309692
F1.446405291557312
F1.1675012111663818
F1.2349376678466797
F1.4503700733184814
Fnan
F1.0221304893493652
Fnan
Fnan
Fnan
Fnan
Fnan
Fnan
Fnan
Fnan
F3.3563694953918457
F3.3381245136260986
F3.381558656692505
F3.2829933166503906
F3.2889444828033447
F3.199617862701416
F3.1875178813934326
F3.295164108276367
F3.1682820320129395
F2.9731452465057373
F3.1453042030334473
F2.986224889755249
F3.083261013031006
F2.900897264480591
tp684
ababaa(lp685
g2
(g3
g4
Ntp686
Rp687
(lp688
F1.5707963267948966
abag2
(g3
g4
Ntp689
Rp690
(lp691
F0.0
abag2
(g11
g4
Ntp692
Rp693
(lp694
g2
(g15
g4
Ntp695
Rp696
(lp697
S'mobile_base'
p698
ag2
(g20
g4
Ntp699
Rp700
(lp701
g2
(g24
g4
Ntp702
Rp703
(lp704
F2.880520840640264
aF-2.7042226200679167
aF-0.0011307247007268373
abag2
(g28
g4
Ntp705
Rp706
(lp707
F0.0028436948065113945
aF-0.0028108519964185276
aF0.7070434584254921
aF0.7071587943373263
ababag2
(g32
g4
Ntp708
Rp709
(lp710
g2
(g36
g4
Ntp711
Rp712
(lp713
F-0.0001586062941096275
aF4.2090445434530845e-05
aF3.731906586910783e-05
abag2
(g36
g4
Ntp714
Rp715
(lp716
F0.00015414653704350932
aF-0.00010629764469641363
aF-0.00029888567972847526
ababag43
abag2
(g3
g4
Ntp717
Rp718
(lp719
F1.6424856185913086
abag2
(g3
g4
Ntp720
Rp721
(lp722
F-0.048565573990345
abag2
(g50
g4
Ntp723
Rp724
(lp725
(F1.4044607877731323
F1.5428390502929688
F1.532748818397522
F1.5005149841308594
F1.485974907875061
F1.7222912311553955
F1.7012803554534912
F1.5799319744110107
F1.7893569469451904
F1.874670386314392
F1.9716466665267944
F1.9127637147903442
F2.0528104305267334
F2.2414634227752686
F2.1306817531585693
F2.333804130554199
F2.569195508956909
F2.687001943588257
F2.828974962234497
F2.9130163192749023
F3.0404088497161865
F3.496547222137451
F3.6654884815216064
F3.9570114612579346
F4.037286281585693
F4.532597064971924
Fnan
Fnan
Fnan
Fnan
Fnan
Fnan
Fnan
Fnan
Fnan
Fnan
F4.823890209197998
F4.334806442260742
F3.971021890640259
F3.586215019226074
F3.330204486846924
F3.1426029205322266
F2.8621842861175537
F2.8579084873199463
F2.5450618267059326
F2.6172714233398438
F2.406583070755005
F2.2608213424682617
F2.2351534366607666
F2.1225078105926514
F2.0044078826904297
F1.889309287071228
F1.836726188659668
F1.7300719022750854
tp726
ababaa(lp727
g2
(g3
g4
Ntp728
Rp729
(lp730
F1.5707963267948966
abag2
(g3
g4
Ntp731
Rp732
(lp733
F1.0
abag2
(g11
g4
Ntp734
Rp735
(lp736
g2
(g15
g4
Ntp737
Rp738
(lp739
S'mobile_base'
p740
ag2
(g20
g4
Ntp741
Rp742
(lp743
g2
(g24
g4
Ntp744
Rp745
(lp746
F2.8803658273024277
aF-1.7042086684830784
aF-0.0011305951778810552
abag2
(g28
g4
Ntp747
Rp748
(lp749
F0.0028755575227163393
aF-0.0027783349227422523
aF0.7071565924799225
aF0.7070456602908863
ababag2
(g32
g4
Ntp750
Rp751
(lp752
g2
(g36
g4
Ntp753
Rp754
(lp755
F0.0003722424107269168
aF1.2261463543274122e-05
aF7.02691029470783e-05
abag2
(g36
g4
Ntp756
Rp757
(lp758
F-4.578264406648052e-05
aF-0.0038498508814166386
aF0.0003220669608003771
ababag43
abag2
(g3
g4
Ntp759
Rp760
(lp761
F1.65974760055542
abag2
(g3
g4
Ntp762
Rp763
(lp764
F0.9470002055168152
abag2
(g50
g4
Ntp765
Rp766
(lp767
(F1.2207307815551758
F1.0878585577011108
F1.3131645917892456
F1.1036518812179565
F1.297099232673645
F1.3360061645507812
F1.3032234907150269
F1.3492107391357422
F1.4392645359039307
F1.2803009748458862
F1.5113258361816406
F1.6425598859786987
F1.6895264387130737
F1.7232425212860107
F2.0122201442718506
F1.9174859523773193
F1.918668270111084
F2.1246793270111084
F2.1239113807678223
F2.4335129261016846
F2.6577134132385254
F2.7024123668670654
F2.8089818954467773
F3.1549103260040283
F3.397427797317505
F3.9971699714660645
Fnan
Fnan
Fnan
Fnan
Fnan
Fnan
Fnan
Fnan
Fnan
Fnan
F4.747104644775391
F4.312778949737549
F4.116407871246338
F3.503117322921753
F3.4603586196899414
F3.1304423809051514
F3.06870436668396
F2.639007329940796
F2.606794834136963
F2.5183560848236084
F2.460822820663452
F2.3072261810302734
F2.1960558891296387
F1.9722086191177368
F2.0545012950897217
F1.9891437292099
F2.0839743614196777
F1.6955938339233398
tp768
ababaa(lp769
g2
(g3
g4
Ntp770
Rp771
(lp772
F1.5707963267948966
abag2
(g3
g4
Ntp773
Rp774
(lp775
F1.0
abag2
(g11
g4
Ntp776
Rp777
(lp778
g2
(g15
g4
Ntp779
Rp780
(lp781
S'mobile_base'
p782
ag2
(g20
g4
Ntp783
Rp784
(lp785
g2
(g24
g4
Ntp786
Rp787
(lp788
F2.880235803334944
aF-0.7041963957781346
aF-0.0011307648839875284
abag2
(g28
g4
Ntp789
Rp790
(lp791
F0.002853918222070281
aF-0.0028007466550607095
aF0.7074781931682405
aF0.7067238620284149
ababag2
(g32
g4
Ntp792
Rp793
(lp794
g2
(g36
g4
Ntp795
Rp796
(lp797
F-7.799317745178033e-05
aF1.2939173187591847e-05
aF7.031206941941996e-06
abag2
(g36
g4
Ntp798
Rp799
(lp800
F2.5679225986966376e-05
aF-0.0006379188681560119
aF-0.0002400865421903574
ababag43
abag2
(g3
g4
Ntp801
Rp802
(lp803
F1.4348039627075195
abag2
(g3
g4
Ntp804
Rp805
(lp806
F1.0465593338012695
abag2
(g50
g4
Ntp807
Rp808
(lp809
(F0.8812898397445679
F0.9867411851882935
F0.8390584588050842
F1.0111749172210693
F0.703681230545044
F0.9236688017845154
F1.1107361316680908
F1.2880232334136963
F1.0570884943008423
F1.0520459413528442
F1.3564616441726685
F1.205223798751831
F1.4833393096923828
F1.3268752098083496
F1.5061122179031372
F1.3863017559051514
F1.4788860082626343
F1.8378715515136719
F1.7181516885757446
F1.8008559942245483
F2.0059571266174316
F2.2111377716064453
F2.1759519577026367
F2.6719107627868652
F2.6360671520233154
Fnan
Fnan
Fnan
Fnan
Fnan
Fnan
Fnan
Fnan
Fnan
Fnan
Fnan
F4.677581310272217
F4.250945091247559
F3.7965290546417236
F3.61977481842041
F3.3759021759033203
F3.117887258529663
F3.186079978942871
F2.5702154636383057
F2.6170408725738525
F2.5761356353759766
F2.373833417892456
F2.2880873680114746
F2.1554768085479736
F2.259387969970703
F1.9943126440048218
F1.841405987739563
F1.747176170349121
F1.7152305841445923
tp810
ababaa(lp811
g2
(g3
g4
Ntp812
Rp813
(lp814
F1.5707963267948966
abag2
(g3
g4
Ntp815
Rp816
(lp817
F0.0
abag2
(g11
g4
Ntp818
Rp819
(lp820
g2
(g15
g4
Ntp821
Rp822
(lp823
S'mobile_base'
p824
ag2
(g20
g4
Ntp825
Rp826
(lp827
g2
(g24
g4
Ntp828
Rp829
(lp830
F2.8800895492486838
aF-0.7041824483988965
aF-0.0011307578437416144
abag2
(g28
g4
Ntp831
Rp832
(lp833
F0.0028523344842348148
aF-0.0028023447627884834
aF0.7074713603283098
aF0.7067307021539615
ababag2
(g32
g4
Ntp834
Rp835
(lp836
g2
(g36
g4
Ntp837
Rp838
(lp839
F-0.00024213481627221746
aF1.454487756511879e-05
aF7.139329781491373e-06
abag2
(g36
g4
Ntp840
Rp841
(lp842
F2.4858804706992784e-05
aF0.0004124029747569561
aF-0.0003726993477398152
ababag43
abag2
(g3
g4
Ntp843
Rp844
(lp845
F1.3814584016799927
abag2
(g3
g4
Ntp846
Rp847
(lp848
F-0.12100668996572495
abag2
(g50
g4
Ntp849
Rp850
(lp851
(F0.6625229120254517
F1.0301926136016846
F0.8993860483169556
F0.8861604332923889
F0.9327660202980042
F1.1495285034179688
F1.0141419172286987
F0.9911080598831177
F1.1598566770553589
F1.2095659971237183
F1.1947399377822876
F1.242600917816162
F1.2941986322402954
F1.4079554080963135
F1.4737277030944824
F1.7785086631774902
F1.7202026844024658
F1.8425077199935913
F1.625791311264038
F1.7751065492630005
F1.7931269407272339
F2.190394878387451
F2.1632699966430664
F2.3969106674194336
F2.715306520462036
Fnan
Fnan
Fnan
Fnan
Fnan
Fnan
Fnan
Fnan
Fnan
Fnan
Fnan
F4.88077974319458
F4.3569207191467285
F3.966810703277588
F3.7119956016540527
F3.4450013637542725
F2.921534776687622
F2.939833641052246
F2.686173915863037
F2.8218984603881836
F2.585056781768799
F2.150301456451416
F2.3365402221679688
F2.1904869079589844
F1.9932962656021118
F1.9979209899902344
F1.832727074623108
F1.9858957529067993
F1.7993428707122803
tp852
ababaa.