(lp0
(lp1
ccopy_reg
_reconstructor
p2
(cstd_msgs.msg._Float32
Float32
p3
c__builtin__
object
p4
Ntp5
Rp6
(lp7
F-0.7853981633974483
abag2
(g3
g4
Ntp8
Rp9
(lp10
F0.0
abag2
(cturtlebot_ctrl.srv._TurtleBotControl
TurtleBotControlResponse
p11
g4
Ntp12
Rp13
(lp14
g2
(cgazebo_msgs.msg._ModelState
ModelState
p15
g4
Ntp16
Rp17
(lp18
S'mobile_base'
p19
ag2
(cgeometry_msgs.msg._Pose
Pose
p20
g4
Ntp21
Rp22
(lp23
g2
(cgeometry_msgs.msg._Point
Point
p24
g4
Ntp25
Rp26
(lp27
F6.000171342013941
aF1.004710864444161
aF-0.0011307585662166109
abag2
(cgeometry_msgs.msg._Quaternion
Quaternion
p28
g4
Ntp29
Rp30
(lp31
F-0.0014979609198942556
aF-0.003707424864714636
aF-0.38275545900588565
aF0.9238410413675876
ababag2
(cgeometry_msgs.msg._Twist
Twist
p32
g4
Ntp33
Rp34
(lp35
g2
(cgeometry_msgs.msg._Vector3
Vector3
p36
g4
Ntp37
Rp38
(lp39
F0.00030863508478688533
aF0.000293714534173347
aF7.077697968761274e-06
abag2
(g36
g4
Ntp40
Rp41
(lp42
F0.001331583636357904
aF-0.0013670644499267498
aF-0.0005850044230878985
ababaS''
p43
abag2
(g3
g4
Ntp44
Rp45
(lp46
F-0.681458055973053
abag2
(g3
g4
Ntp47
Rp48
(lp49
F-0.10560312867164612
abag2
(cturtlebot_ctrl.msg._TurtleBotScan
TurtleBotScan
p50
g4
Ntp51
Rp52
(lp53
(F1.3676636219024658
F1.281983494758606
F1.5314873456954956
F1.4136866331100464
F1.4980368614196777
F1.5797982215881348
F1.592262625694275
F1.6223207712173462
F1.906451940536499
F1.962117314338684
F1.8404854536056519
F1.9792014360427856
F1.959153652191162
F1.9448118209838867
F2.1335558891296387
F2.3227953910827637
F2.338905096054077
F2.64772891998291
F2.449777841567993
F2.9236013889312744
F3.0203802585601807
F3.246920108795166
F3.4337823390960693
F3.9848413467407227
F4.355769634246826
F4.75788688659668
Fnan
Fnan
Fnan
Fnan
Fnan
Fnan
Fnan
Fnan
Fnan
F5.033385753631592
F4.932222843170166
F5.044892311096191
F4.989743232727051
F4.830859184265137
F4.8832688331604
F4.826655387878418
F4.713493347167969
F2.0932652950286865
F1.8092948198318481
F1.8082873821258545
F1.5008200407028198
F1.6883643865585327
F1.266440749168396
F1.1778879165649414
F1.1779472827911377
F1.2059601545333862
F1.3005653619766235
F1.098078727722168
tp54
ababaa(lp55
g2
(g3
g4
Ntp56
Rp57
(lp58
F-0.7853981633974483
abag2
(g3
g4
Ntp59
Rp60
(lp61
F1.0
abag2
(g11
g4
Ntp62
Rp63
(lp64
g2
(g15
g4
Ntp65
Rp66
(lp67
S'mobile_base'
p68
ag2
(g20
g4
Ntp69
Rp70
(lp71
g2
(g24
g4
Ntp72
Rp73
(lp74
F6.707437788917588
aF0.297739823822408
aF-0.0011307211052712374
abag2
(g28
g4
Ntp75
Rp76
(lp77
F-0.001502835128473096
aF-0.0037053272755689917
aF-0.3828627229222784
aF0.9237965941877554
ababag2
(g32
g4
Ntp78
Rp79
(lp80
g2
(g36
g4
Ntp81
Rp82
(lp83
F0.00015867104607263118
aF0.00010833298222566928
aF3.7661543114128545e-05
abag2
(g36
g4
Ntp84
Rp85
(lp86
F-0.00010711352091122946
aF-0.00011451219170663259
aF-0.0002995496045932846
ababag43
abag2
(g3
g4
Ntp87
Rp88
(lp89
F-0.8011050820350647
abag2
(g3
g4
Ntp90
Rp91
(lp92
F1.0626420974731445
abag2
(g50
g4
Ntp93
Rp94
(lp95
(F1.1086854934692383
F1.2122310400009155
F1.133966326713562
F1.0297850370407104
F1.1470314264297485
F1.1428537368774414
F1.4198044538497925
F1.443674921989441
F1.4299949407577515
F1.428745150566101
F1.4896517992019653
F1.5016430616378784
F1.9266085624694824
F1.7230989933013916
F1.655326247215271
F1.7631043195724487
F1.9673776626586914
F1.913729190826416
F2.1255998611450195
F2.3985435962677
F2.659496307373047
F2.750361680984497
F2.783482551574707
F2.982513904571533
F3.574568033218384
F3.8013558387756348
F4.335664749145508
F4.6102375984191895
F4.64619255065918
F4.581722259521484
Fnan
F4.489084720611572
F4.454654216766357
Fnan
F4.167030334472656
F4.167438983917236
F4.007693767547607
F3.997236490249634
F3.84294056892395
F3.914807081222534
F3.837298631668091
F3.8904826641082764
F3.7786777019500732
F3.677687883377075
F3.65508770942688
F3.7540035247802734
F3.702303886413574
F3.5180017948150635
F3.428730010986328
F3.4755983352661133
F3.574744701385498
F3.5450425148010254
F3.3364875316619873
F3.4561209678649902
tp96
ababaa(lp97
g2
(g3
g4
Ntp98
Rp99
(lp100
F-0.7853981633974483
abag2
(g3
g4
Ntp101
Rp102
(lp103
F1.0
abag2
(g11
g4
Ntp104
Rp105
(lp106
g2
(g15
g4
Ntp107
Rp108
(lp109
S'mobile_base'
p110
ag2
(g20
g4
Ntp111
Rp112
(lp113
g2
(g24
g4
Ntp114
Rp115
(lp116
F7.415242643750719
aF-0.40878585738216805
aF-0.0011307328011503914
abag2
(g28
g4
Ntp117
Rp118
(lp119
F-0.001511303389192979
aF-0.003701809061003072
aF-0.38358643004656084
aF0.9234963255237548
ababag2
(g32
g4
Ntp120
Rp121
(lp122
g2
(g36
g4
Ntp123
Rp124
(lp125
F0.00011278922723774557
aF5.8894479393184785e-05
aF3.660443954578833e-05
abag2
(g36
g4
Ntp126
Rp127
(lp128
F-0.0003201281216411467
aF0.00010658634580802348
aF-0.0001978083203784551
ababag43
abag2
(g3
g4
Ntp129
Rp130
(lp131
F-0.8372328877449036
abag2
(g3
g4
Ntp132
Rp133
(lp134
F1.059172511100769
abag2
(g50
g4
Ntp135
Rp136
(lp137
(F0.8637020587921143
F0.85276859998703
F1.0146286487579346
F1.0554813146591187
F0.8136835694313049
F0.9538868069648743
F1.002480387687683
F1.1228357553482056
F1.1057037115097046
F1.2514793872833252
F1.236289381980896
F1.1512556076049805
F1.1765286922454834
F1.4583269357681274
F1.298996090888977
F1.5633748769760132
F1.3936188220977783
F1.6947993040084839
F1.9363040924072266
F1.700124740600586
F1.9682292938232422
F2.016225576400757
F2.368647336959839
F2.4387218952178955
F2.728511333465576
F2.9176056385040283
F3.3576862812042236
F3.737076759338379
F3.5740303993225098
F3.7044506072998047
Fnan
F3.459784507751465
F3.354640007019043
Fnan
F3.3401503562927246
F3.158790111541748
F3.3673958778381348
F3.0105926990509033
F3.131880283355713
F3.2386136054992676
F3.1502771377563477
F3.032959222793579
F2.969965696334839
F2.9344747066497803
F2.74853253364563
F2.852419376373291
F2.8984534740448
F2.862513780593872
F2.755540370941162
F2.931417465209961
F2.7328014373779297
F2.8856844902038574
F2.8762290477752686
F2.6029393672943115
tp138
ababaa(lp139
g2
(g3
g4
Ntp140
Rp141
(lp142
F-0.7853981633974483
abag2
(g3
g4
Ntp143
Rp144
(lp145
F1.0
abag2
(g11
g4
Ntp146
Rp147
(lp148
g2
(g15
g4
Ntp149
Rp150
(lp151
S'mobile_base'
p152
ag2
(g20
g4
Ntp153
Rp154
(lp155
g2
(g24
g4
Ntp156
Rp157
(lp158
F8.122462825347494
aF-1.1157982736149425
aF-0.0011309913800737481
abag2
(g28
g4
Ntp159
Rp160
(lp161
F-0.0015022895162959357
aF-0.0037047081631441194
aF-0.3821768754694752
aF0.9240805452556743
ababag2
(g32
g4
Ntp162
Rp163
(lp164
g2
(g36
g4
Ntp165
Rp166
(lp167
F0.00030204548227844095
aF0.00031791203563749193
aF-1.375496112234414e-05
abag2
(g36
g4
Ntp168
Rp169
(lp170
F0.0015309318418460257
aF-0.001284313158542602
aF-0.0005937552742482338
ababag43
abag2
(g3
g4
Ntp171
Rp172
(lp173
F-0.8049704432487488
abag2
(g3
g4
Ntp174
Rp175
(lp176
F0.8658773899078369
abag2
(g50
g4
Ntp177
Rp178
(lp179
(F0.5341177582740784
F0.558729887008667
F0.7925318479537964
F0.5885119438171387
F0.7896613478660583
F0.6547539234161377
F0.7672631740570068
F0.7042971253395081
F0.8688455820083618
F0.6975956559181213
F0.7294883131980896
F0.9234187602996826
F0.9534980058670044
F1.1561475992202759
F1.1649601459503174
F0.993683934211731
F1.0945967435836792
F1.4847331047058105
F1.249514102935791
F1.4649901390075684
F1.555315613746643
F1.5781649351119995
F1.6905075311660767
F1.7542170286178589
F2.1173176765441895
F2.1530163288116455
F2.5837907791137695
F2.8117730617523193
F2.6471199989318848
F2.510561227798462
Fnan
F2.60380220413208
F2.7439496517181396
Fnan
F2.2059106826782227
F2.496168851852417
F2.193838119506836
F2.4754421710968018
F2.3017635345458984
F2.2714741230010986
F2.2671525478363037
F2.1322131156921387
F1.972663164138794
F2.145524263381958
F2.060697555541992
F2.0679590702056885
F1.8809722661972046
F2.038160562515259
F2.065639019012451
F1.930571436882019
F2.049476146697998
F1.9334557056427002
F2.0044901371002197
F1.7041964530944824
tp180
ababaa(lp181
g2
(g3
g4
Ntp182
Rp183
(lp184
F0.7853981633974483
abag2
(g3
g4
Ntp185
Rp186
(lp187
F0.0
abag2
(g11
g4
Ntp188
Rp189
(lp190
g2
(g15
g4
Ntp191
Rp192
(lp193
S'mobile_base'
p194
ag2
(g20
g4
Ntp195
Rp196
(lp197
g2
(g24
g4
Ntp198
Rp199
(lp200
F8.122896761886539
aF-1.1154114772415744
aF-0.0011307214942359312
abag2
(g28
g4
Ntp201
Rp202
(lp203
F0.001554779686458743
aF-0.0036838204686238823
aF0.38251777859101993
aF0.9239394791806838
ababag2
(g32
g4
Ntp204
Rp205
(lp206
g2
(g36
g4
Ntp207
Rp208
(lp209
F-5.4716125666242e-05
aF0.00010674506706002986
aF3.760049924785389e-05
abag2
(g36
g4
Ntp210
Rp211
(lp212
F-0.0002846991066011791
aF-0.0005086724302434719
aF-0.00023592849352096595
ababag43
abag2
(g3
g4
Ntp213
Rp214
(lp215
F0.9238805174827576
abag2
(g3
g4
Ntp216
Rp217
(lp218
F0.0020239141304045916
abag2
(g50
g4
Ntp219
Rp220
(lp221
(F1.8999890089035034
F1.6187371015548706
F1.8823367357254028
F2.045625686645508
F1.628675103187561
F2.004227876663208
F1.959930181503296
F1.9376354217529297
F1.7235745191574097
F1.9073243141174316
F1.7829498052597046
F1.914939522743225
F1.8312004804611206
F1.8488917350769043
F1.8339688777923584
F1.9430177211761475
F2.024237871170044
F1.8252495527267456
F2.044879913330078
F1.9223861694335938
F2.2052900791168213
F2.009218215942383
F2.104276657104492
F2.083174228668213
F2.1141741275787354
F2.1091086864471436
F2.257002353668213
F2.0898447036743164
F2.12888503074646
F2.1143195629119873
Fnan
F2.2107889652252197
F2.2380828857421875
Fnan
F2.310781717300415
F2.443718910217285
F2.3722686767578125
F2.4663186073303223
F2.5359604358673096
F2.2922887802124023
F2.6979644298553467
F2.681722402572632
F2.4046082496643066
F2.637969732284546
F2.8012540340423584
F2.849194288253784
F2.8674278259277344
F2.8756325244903564
F3.1174323558807373
F2.926539659500122
F3.0641896724700928
F3.3146541118621826
Fnan
Fnan
tp222
ababaa(lp223
g2
(g3
g4
Ntp224
Rp225
(lp226
F0.7853981633974483
abag2
(g3
g4
Ntp227
Rp228
(lp229
F1.0
abag2
(g11
g4
Ntp230
Rp231
(lp232
g2
(g15
g4
Ntp233
Rp234
(lp235
S'mobile_base'
p236
ag2
(g20
g4
Ntp237
Rp238
(lp239
g2
(g24
g4
Ntp240
Rp241
(lp242
F8.829873924353954
aF-0.4081491897007937
aF-0.0011307432066271217
abag2
(g28
g4
Ntp243
Rp244
(lp245
F0.0015778726324534396
aF-0.003674291705916795
aF0.3825104971757577
aF0.9239424925008972
ababag2
(g32
g4
Ntp246
Rp247
(lp248
g2
(g36
g4
Ntp249
Rp250
(lp251
F0.00016600308363163053
aF-0.00012380458876476604
aF-4.210838994366651e-06
abag2
(g36
g4
Ntp252
Rp253
(lp254
F-0.002011739096285773
aF-0.0021609477757989133
aF8.43081585680258e-05
ababag43
abag2
(g3
g4
Ntp255
Rp256
(lp257
F0.7598045468330383
abag2
(g3
g4
Ntp258
Rp259
(lp260
F1.0125465393066406
abag2
(g50
g4
Ntp261
Rp262
(lp263
(F1.1348274946212769
F1.0012180805206299
F1.0362498760223389
F0.9692419767379761
F1.1245940923690796
F1.0211199522018433
F1.0925122499465942
F0.9251622557640076
F0.9787313938140869
F1.1974797248840332
F0.7604358792304993
F1.032731056213379
F1.2019057273864746
F1.0771979093551636
F0.9909829497337341
F1.0201116800308228
F0.9711796045303345
F1.0608221292495728
F1.0493241548538208
F0.9873008728027344
F1.0999749898910522
F1.0211830139160156
F1.1113497018814087
F1.0746309757232666
F0.9460075497627258
F1.1021101474761963
F1.0208287239074707
F1.1761474609375
F1.1644912958145142
F1.1220601797103882
Fnan
F1.3320595026016235
F1.3040467500686646
Fnan
F1.3454053401947021
F1.2891168594360352
F1.3334850072860718
F1.3523509502410889
F1.2037996053695679
F1.395735263824463
F1.3941956758499146
F1.3660399913787842
F1.3392313718795776
F1.3720711469650269
F1.2352941036224365
F1.5007610321044922
F1.718326449394226
F1.5578570365905762
F1.6313464641571045
F1.4998444318771362
F1.6338852643966675
F1.5708694458007812
F1.7061834335327148
F1.7603867053985596
tp264
ababaa(lp265
g2
(g3
g4
Ntp266
Rp267
(lp268
F1.5707963267948966
abag2
(g3
g4
Ntp269
Rp270
(lp271
F0.0
abag2
(g11
g4
Ntp272
Rp273
(lp274
g2
(g15
g4
Ntp275
Rp276
(lp277
S'mobile_base'
p278
ag2
(g20
g4
Ntp279
Rp280
(lp281
g2
(g24
g4
Ntp282
Rp283
(lp284
F8.82948637455965
aF-0.4077095954328202
aF-0.0011307216307488432
abag2
(g28
g4
Ntp285
Rp286
(lp287
F0.002846700737233035
aF-0.0028078816339280016
aF0.7070407696085709
aF0.7071614824118763
ababag2
(g32
g4
Ntp288
Rp289
(lp290
g2
(g36
g4
Ntp291
Rp292
(lp293
F-0.000112231897203321
aF3.764118948172701e-05
aF3.7585407488257106e-05
abag2
(g36
g4
Ntp294
Rp295
(lp296
F0.00015869926906735503
aF-0.0005484258244738655
aF-0.0002482498132647934
ababag43
abag2
(g3
g4
Ntp297
Rp298
(lp299
F1.607316493988037
abag2
(g3
g4
Ntp300
Rp301
(lp302
F0.05651135742664337
abag2
(g50
g4
Ntp303
Rp304
(lp305
(F1.4692822694778442
F1.226464867591858
F1.2993104457855225
F1.5217996835708618
F1.5130988359451294
F1.4039995670318604
F1.375140905380249
F1.5068706274032593
F1.5982180833816528
F1.6495660543441772
F1.564020037651062
F1.44206964969635
F1.6714272499084473
F1.5863529443740845
F1.776637315750122
F2.076446771621704
F1.899603247642517
F2.0116841793060303
F1.7833813428878784
F2.027271032333374
F2.116830587387085
F2.1062657833099365
F2.485960006713867
F2.3979973793029785
F4.635258197784424
F4.513123512268066
F4.432106971740723
F4.3464226722717285
F4.260030746459961
F4.262861251831055
Fnan
F4.0794830322265625
F3.816153049468994
Fnan
F3.8192081451416016
F3.8505401611328125
F3.5729057788848877
F3.6851866245269775
F3.6460001468658447
F3.7384192943573
F3.7717456817626953
F3.9678783416748047
F4.127238750457764
F4.202200412750244
F4.276500225067139
F4.634729862213135
F4.804960250854492
F5.0111002922058105
F5.2582197189331055
Fnan
Fnan
Fnan
Fnan
F1.6559128761291504
tp306
ababaa(lp307
g2
(g3
g4
Ntp308
Rp309
(lp310
F1.5707963267948966
abag2
(g3
g4
Ntp311
Rp312
(lp313
F1.0
abag2
(g11
g4
Ntp314
Rp315
(lp316
g2
(g15
g4
Ntp317
Rp318
(lp319
S'mobile_base'
p320
ag2
(g20
g4
Ntp321
Rp322
(lp323
g2
(g24
g4
Ntp324
Rp325
(lp326
F8.829324885177666
aF0.5923017670700977
aF-0.0011309910206369622
abag2
(g28
g4
Ntp327
Rp328
(lp329
F0.0028457658897018292
aF-0.0028077473686313956
aF0.7067041473841078
aF0.7074978913334767
ababag2
(g32
g4
Ntp330
Rp331
(lp332
g2
(g36
g4
Ntp333
Rp334
(lp335
F-7.497063387005392e-05
aF-1.2299182103113193e-05
aF-1.3622127491708867e-05
abag2
(g36
g4
Ntp336
Rp337
(lp338
F-0.0001786804757188057
aF-0.0008059173523897161
aF-0.00023391970645507873
ababag43
abag2
(g3
g4
Ntp339
Rp340
(lp341
F1.5150789022445679
abag2
(g3
g4
Ntp342
Rp343
(lp344
F1.0755422115325928
abag2
(g50
g4
Ntp345
Rp346
(lp347
(F0.7640831470489502
F0.8340806365013123
F0.94920814037323
F0.7251690626144409
F0.9496790170669556
F0.9723479747772217
F1.1431689262390137
F1.0499600172042847
F1.0627397298812866
F0.9977023601531982
F1.0621129274368286
F0.9480828046798706
F1.1979758739471436
F1.2271575927734375
F1.3587157726287842
F0.9630193114280701
F1.2603826522827148
F1.3712685108184814
F1.3080846071243286
F1.5902546644210815
F1.4310462474822998
F3.814835548400879
F3.433397054672241
F3.7187206745147705
F3.5429015159606934
F3.4881339073181152
F3.5018153190612793
F3.266407012939453
F3.2577052116394043
F3.1971752643585205
Fnan
F3.138176202774048
F2.9404585361480713
Fnan
F2.857729434967041
F2.946087598800659
F2.7411718368530273
F2.8916149139404297
F2.7023260593414307
F2.8664445877075195
F2.6218011379241943
F2.693221092224121
F2.6905782222747803
F2.7325117588043213
F2.7939960956573486
F2.8832995891571045
F3.1058599948883057
F2.966264247894287
F3.310615301132202
F3.705622911453247
F3.7722597122192383
F3.8709921836853027
F4.129307746887207
F4.445645332336426
tp348
ababaa(lp349
g2
(g3
g4
Ntp350
Rp351
(lp352
F1.5707963267948966
abag2
(g3
g4
Ntp353
Rp354
(lp355
F1.0
abag2
(g11
g4
Ntp356
Rp357
(lp358
g2
(g15
g4
Ntp359
Rp360
(lp361
S'mobile_base'
p362
ag2
(g20
g4
Ntp363
Rp364
(lp365
g2
(g24
g4
Ntp366
Rp367
(lp368
F8.829178834292275
aF1.5923165245831867
aF-0.001130749163678113
abag2
(g28
g4
Ntp369
Rp370
(lp371
F0.0028481068530620854
aF-0.0028066434971609176
aF0.7070467062770431
aF0.7071555459603056
ababag2
(g32
g4
Ntp372
Rp373
(lp374
g2
(g36
g4
Ntp375
Rp376
(lp377
F-0.0001967706974151093
aF1.3723418987237892e-05
aF7.291562220802038e-06
abag2
(g36
g4
Ntp378
Rp379
(lp380
F2.614736418524577e-05
aF0.0002639037577486187
aF-0.0003222856325190319
ababag43
abag2
(g3
g4
Ntp381
Rp382
(lp383
F1.7740947008132935
abag2
(g3
g4
Ntp384
Rp385
(lp386
F1.1780482530593872
abag2
(g50
g4
Ntp387
Rp388
(lp389
(Fnan
Fnan
Fnan
Fnan
F0.3413565456867218
F0.3055776357650757
F0.47581541538238525
F0.27865102887153625
F0.4174160957336426
F0.5134007930755615
F0.6367570757865906
F3.560842752456665
F3.4626126289367676
F3.302342414855957
F3.2673161029815674
F3.143918037414551
F2.9957220554351807
F3.0007662773132324
F2.902113676071167
F2.743279218673706
F2.6254372596740723
F2.6957757472991943
F2.6598153114318848
F2.395968198776245
F2.338369131088257
F2.4935927391052246
F2.2321200370788574
F2.27294659614563
F2.409236192703247
F2.306870698928833
Fnan
F2.1610677242279053
F2.0994632244110107
Fnan
F1.9396960735321045
F2.2287750244140625
F1.9534915685653687
F1.9081192016601562
F1.9728224277496338
F2.0126986503601074
F1.867879867553711
F1.9654295444488525
F1.7903647422790527
F1.8815981149673462
F1.8471019268035889
F1.9344531297683716
F1.7773042917251587
F1.7367048263549805
F1.8021315336227417
F1.6844942569732666
F1.7870948314666748
F1.7155970335006714
F1.8542635440826416
F1.9927265644073486
tp390
ababaa(lp391
g2
(g3
g4
Ntp392
Rp393
(lp394
F2.356194490192345
abag2
(g3
g4
Ntp395
Rp396
(lp397
F0.0
abag2
(g11
g4
Ntp398
Rp399
(lp400
g2
(g15
g4
Ntp401
Rp402
(lp403
S'mobile_base'
p404
ag2
(g20
g4
Ntp405
Rp406
(lp407
g2
(g24
g4
Ntp408
Rp409
(lp410
F8.8286684875661
aF1.5923572560300046
aF-0.0011309910780348542
abag2
(g28
g4
Ntp411
Rp412
(lp413
F0.0037009190614855805
aF-0.0015114851347702086
aF0.9238085701117609
aF0.38283383392648485
ababag2
(g32
g4
Ntp414
Rp415
(lp416
g2
(g36
g4
Ntp417
Rp418
(lp419
F-0.000378468491130314
aF-0.0004011684699249561
aF-1.3443194788802133e-05
abag2
(g36
g4
Ntp420
Rp421
(lp422
F-0.0020611242202780425
aF0.0018199200431209888
aF-0.0007115436827615171
ababag43
abag2
(g3
g4
Ntp423
Rp424
(lp425
F2.1812994480133057
abag2
(g3
g4
Ntp426
Rp427
(lp428
F-0.3511033058166504
abag2
(g50
g4
Ntp429
Rp430
(lp431
(F2.026010751724243
F1.9711476564407349
F1.897965669631958
F1.8709955215454102
F1.9217441082000732
F1.869030237197876
F1.935968041419983
F1.9060041904449463
F1.949291467666626
F1.6066516637802124
F1.8361577987670898
F1.5495387315750122
F1.6688660383224487
F1.7139812707901
F1.6842392683029175
F1.7403686046600342
F1.9862841367721558
F2.0367188453674316
F2.4315879344940186
F2.650646924972534
F3.0897042751312256
F3.5429952144622803
F4.440915107727051
Fnan
Fnan
Fnan
Fnan
Fnan
Fnan
Fnan
Fnan
Fnan
Fnan
Fnan
Fnan
Fnan
Fnan
Fnan
Fnan
Fnan
Fnan
Fnan
Fnan
Fnan
F4.956655025482178
F4.493044376373291
F4.03265380859375
F3.7431607246398926
F3.52315354347229
F3.3325209617614746
F3.025729179382324
F2.9069645404815674
F2.9165802001953125
F2.6812453269958496
tp432
ababaa(lp433
g2
(g3
g4
Ntp434
Rp435
(lp436
F2.356194490192345
abag2
(g3
g4
Ntp437
Rp438
(lp439
F1.0
abag2
(g11
g4
Ntp440
Rp441
(lp442
g2
(g15
g4
Ntp443
Rp444
(lp445
S'mobile_base'
p446
ag2
(g20
g4
Ntp447
Rp448
(lp449
g2
(g24
g4
Ntp450
Rp451
(lp452
F8.121440033213918
aF2.299362856872658
aF-0.0011309920443912658
abag2
(g28
g4
Ntp453
Rp454
(lp455
F0.0037029420493669384
aF-0.0015065991370378027
aF0.923849723579105
aF0.38273451192965413
ababag2
(g32
g4
Ntp456
Rp457
(lp458
g2
(g36
g4
Ntp459
Rp460
(lp461
F-3.366881428699213e-05
aF-4.927968726003193e-05
aF-1.2847826230158358e-05
abag2
(g36
g4
Ntp462
Rp463
(lp464
F0.00035574659389557626
aF-0.0005997533304518742
aF-0.00016634909933577215
ababag43
abag2
(g3
g4
Ntp465
Rp466
(lp467
F2.344198226928711
abag2
(g3
g4
Ntp468
Rp469
(lp470
F0.9124866724014282
abag2
(g50
g4
Ntp471
Rp472
(lp473
(F0.8729565143585205
F0.839150607585907
F1.0251094102859497
F1.02456796169281
F0.8870634436607361
F1.0736792087554932
F1.080479383468628
F0.9890279769897461
F1.1824594736099243
F1.084036946296692
F1.237805962562561
F1.2736061811447144
F1.3629279136657715
F1.4199059009552002
F1.7094379663467407
F1.7701283693313599
F2.074063301086426
F2.299809455871582
F2.4592113494873047
F2.830083131790161
F3.1814463138580322
F4.880058765411377
F5.019820690155029
F4.702687740325928
F5.088087558746338
F5.138178825378418
F4.9342780113220215
F4.91907262802124
F4.7942633628845215
F4.8276824951171875
Fnan
F4.948416233062744
F4.935569763183594
Fnan
F4.883986473083496
F4.983150959014893
F4.93275260925293
F5.09351921081543
F5.115522861480713
F4.929800510406494
F5.275991916656494
F5.1325764656066895
F5.277580261230469
F5.156525611877441
F5.505225658416748
F5.245645999908447
F5.2056145668029785
F4.297328472137451
F4.029911994934082
F3.8180999755859375
F3.308145761489868
F3.4430489540100098
F3.0052192211151123
F2.8178470134735107
tp474
ababaa(lp475
g2
(g3
g4
Ntp476
Rp477
(lp478
F2.356194490192345
abag2
(g3
g4
Ntp479
Rp480
(lp481
F1.0
abag2
(g11
g4
Ntp482
Rp483
(lp484
g2
(g15
g4
Ntp485
Rp486
(lp487
S'mobile_base'
p488
ag2
(g20
g4
Ntp489
Rp490
(lp491
g2
(g24
g4
Ntp492
Rp493
(lp494
F7.414247002977602
aF3.006396818862783
aF-0.0011309912379630638
abag2
(g28
g4
Ntp495
Rp496
(lp497
F0.0037040962187875003
aF-0.0015038153908709902
aF0.9238389581883703
aF0.3827604963210006
ababag2
(g32
g4
Ntp498
Rp499
(lp500
g2
(g36
g4
Ntp501
Rp502
(lp503
F2.1776755850297895e-05
aF-6.117256207333719e-06
aF-1.2956240079222405e-05
abag2
(g36
g4
Ntp504
Rp505
(lp506
F0.0008005649087589886
aF-0.001049939731023434
aF-0.00013577508993821395
ababag43
abag2
(g3
g4
Ntp507
Rp508
(lp509
F2.1726455688476562
abag2
(g3
g4
Ntp510
Rp511
(lp512
F1.1264971494674683
abag2
(g50
g4
Ntp513
Rp514
(lp515
(F0.5382186770439148
F0.8046520948410034
F0.8580439686775208
F0.8704229593276978
F0.9146997928619385
F0.943141758441925
F0.9831230640411377
F1.165100336074829
F1.0524208545684814
F1.1135679483413696
F1.440008521080017
F1.3129020929336548
F1.439983606338501
F1.4043408632278442
F1.6867821216583252
F1.8010778427124023
F1.9216766357421875
F2.253023862838745
F2.316321849822998
F4.119072437286377
F3.9227380752563477
F3.9943935871124268
F3.9427342414855957
F3.87608003616333
F4.006172180175781
F3.7485766410827637
F3.965968608856201
F3.9509332180023193
F4.046780109405518
F3.9104387760162354
Fnan
F3.6378424167633057
F3.8121368885040283
Fnan
F3.88558030128479
F3.8488922119140625
F3.9283876419067383
F3.8315529823303223
F4.1153435707092285
F3.9309277534484863
F4.20940637588501
F3.9413106441497803
F3.8959596157073975
F4.029571056365967
F4.176313400268555
F4.247277736663818
F4.10361909866333
F4.179255962371826
F4.300350666046143
F4.36901330947876
F4.377806186676025
F4.467188358306885
F3.518669366836548
F3.4742860794067383
tp516
ababaa(lp517
g2
(g3
g4
Ntp518
Rp519
(lp520
F2.356194490192345
abag2
(g3
g4
Ntp521
Rp522
(lp523
F1.0
abag2
(g11
g4
Ntp524
Rp525
(lp526
g2
(g15
g4
Ntp527
Rp528
(lp529
S'mobile_base'
p530
ag2
(g20
g4
Ntp531
Rp532
(lp533
g2
(g24
g4
Ntp534
Rp535
(lp536
F6.707045520653013
aF3.713419765467525
aF-0.0011309905853231217
abag2
(g28
g4
Ntp537
Rp538
(lp539
F0.0037040357517701405
aF-0.0015039194950602157
aF0.924074754120079
aF0.3821908778911625
ababag2
(g32
g4
Ntp540
Rp541
(lp542
g2
(g36
g4
Ntp543
Rp544
(lp545
F-5.999598846449035e-05
aF-8.001783676609745e-05
aF-1.4059900482283095e-05
abag2
(g36
g4
Ntp546
Rp547
(lp548
F0.00019725682426355984
aF-0.0004520200462877684
aF-0.0002414124189902333
ababag43
abag2
(g3
g4
Ntp549
Rp550
(lp551
F2.157122850418091
abag2
(g3
g4
Ntp552
Rp553
(lp554
F0.959717869758606
abag2
(g50
g4
Ntp555
Rp556
(lp557
(F0.6761249899864197
F0.8219437599182129
F0.8913878798484802
F0.9814878106117249
F1.0131189823150635
F1.0840777158737183
F0.8517871499061584
F0.9840606451034546
F1.2057957649230957
F1.0259947776794434
F1.4658479690551758
F1.2388525009155273
F1.4789944887161255
F2.8717572689056396
F3.1513524055480957
F2.95660138130188
F3.0131149291992188
F3.109724283218384
F3.0501396656036377
F3.0880606174468994
F2.872083902359009
F2.9213361740112305
F3.011841297149658
F3.0457305908203125
F2.8321681022644043
F2.728726863861084
F3.0237650871276855
F3.0221104621887207
F2.974116563796997
F2.756124258041382
Fnan
F2.775940418243408
F2.820556640625
Fnan
F2.8191728591918945
F2.9542524814605713
F2.8622262477874756
F2.981201171875
F2.991243839263916
F2.8843705654144287
F3.1736631393432617
F2.8110458850860596
F2.955120801925659
F3.142228603363037
F3.051802396774292
F3.1737217903137207
F3.286958932876587
F3.2655155658721924
F3.1441190242767334
F3.3579671382904053
F3.318856954574585
F3.2946228981018066
F3.2257981300354004
F3.4151604175567627
tp558
ababaa(lp559
g2
(g3
g4
Ntp560
Rp561
(lp562
F2.356194490192345
abag2
(g3
g4
Ntp563
Rp564
(lp565
F1.0
abag2
(g11
g4
Ntp566
Rp567
(lp568
g2
(g15
g4
Ntp569
Rp570
(lp571
S'mobile_base'
p572
ag2
(g20
g4
Ntp573
Rp574
(lp575
g2
(g24
g4
Ntp576
Rp577
(lp578
F5.999852099927839
aF4.420452272133045
aF-0.0011307416347056676
abag2
(g28
g4
Ntp579
Rp580
(lp581
F0.003714264920318716
aF-0.0014813364399303371
aF0.9239048884452866
aF0.3826013159744173
ababag2
(g32
g4
Ntp582
Rp583
(lp584
g2
(g36
g4
Ntp585
Rp586
(lp587
F0.0001303146410704657
aF0.00017127280822508024
aF-4.235469131730584e-06
abag2
(g36
g4
Ntp588
Rp589
(lp590
F0.002153109982393673
aF-0.00200159627810555
aF0.00013718777626733813
ababag43
abag2
(g3
g4
Ntp591
Rp592
(lp593
F2.2713632583618164
abag2
(g3
g4
Ntp594
Rp595
(lp596
F1.146424651145935
abag2
(g50
g4
Ntp597
Rp598
(lp599
(F2.174520969390869
F2.1466846466064453
F2.227985143661499
F2.0245654582977295
F2.0295822620391846
F2.113163948059082
F1.9719938039779663
F1.9633889198303223
F2.0657944679260254
F2.1253390312194824
F2.0700416564941406
F1.9847633838653564
F2.0442891120910645
F1.9408771991729736
F2.063455581665039
F1.951886773109436
F1.9631150960922241
F1.9473880529403687
F1.8961970806121826
F1.8861557245254517
F2.172168493270874
F1.9957399368286133
F1.8497980833053589
F2.070028066635132
F1.7505874633789062
F1.816609501838684
F2.063511848449707
F1.8987140655517578
F1.8348623514175415
F1.8597558736801147
Fnan
F1.9087120294570923
F1.9312968254089355
Fnan
F2.0436007976531982
F1.7730708122253418
F2.001237630844116
F1.8774572610855103
F2.025625705718994
F1.946576714515686
F1.9596407413482666
F1.911189317703247
F2.0931007862091064
F1.9195373058319092
F2.030541181564331
F2.001432180404663
F2.25827956199646
F2.097282648086548
F2.0864369869232178
F2.011777877807617
F2.048367738723755
F2.0391845703125
F2.01998233795166
F2.2559447288513184
tp600
ababaa(lp601
g2
(g3
g4
Ntp602
Rp603
(lp604
F2.356194490192345
abag2
(g3
g4
Ntp605
Rp606
(lp607
F1.0
abag2
(g11
g4
Ntp608
Rp609
(lp610
g2
(g15
g4
Ntp611
Rp612
(lp613
S'mobile_base'
p614
ag2
(g20
g4
Ntp615
Rp616
(lp617
g2
(g24
g4
Ntp618
Rp619
(lp620
F5.2926778536111385
aF5.1275035124077615
aF-0.0011307480082594912
abag2
(g28
g4
Ntp621
Rp622
(lp623
F0.0037065862288212176
aF-0.0015001178458064412
aF0.9240841833787076
aF0.3821680689098507
ababag2
(g32
g4
Ntp624
Rp625
(lp626
g2
(g36
g4
Ntp627
Rp628
(lp629
F-7.957654843273884e-05
aF-7.092456451770721e-05
aF1.2358048885539044e-05
abag2
(g36
g4
Ntp630
Rp631
(lp632
F0.00013050088183864947
aF-0.00010672833938309672
aF-0.00022351065768030508
ababag43
abag2
(g3
g4
Ntp633
Rp634
(lp635
F2.291757583618164
abag2
(g3
g4
Ntp636
Rp637
(lp638
F0.9696823358535767
abag2
(g50
g4
Ntp639
Rp640
(lp641
(F1.0803176164627075
F1.0929276943206787
F1.0669420957565308
F0.9841324687004089
F1.1567952632904053
F0.9094733595848083
F1.025353193283081
F0.9039352536201477
F0.7325008511543274
F0.8836628794670105
F1.1231329441070557
F0.9880398511886597
F0.9163339734077454
F0.9352689385414124
F1.0386335849761963
F1.0051069259643555
F0.873614490032196
F0.843639075756073
F1.0909030437469482
F0.9515016674995422
F0.8641185760498047
F0.9619003534317017
F0.9989405274391174
F0.8853617310523987
F0.9671063423156738
F0.827488124370575
F1.0059565305709839
F1.0151450634002686
F0.8659783005714417
F0.8926529288291931
Fnan
F0.9388661980628967
F0.956725537776947
Fnan
F1.0474761724472046
F0.9258509874343872
F0.8492713570594788
F0.9248642921447754
F0.8835127353668213
F1.2511959075927734
F1.0289735794067383
F0.9816189408302307
F1.14598548412323
F0.9842348098754883
F0.9900112152099609
F0.8702648878097534
F1.1395313739776611
F1.0622469186782837
F1.0170140266418457
F1.0432003736495972
F0.8407824635505676
F0.9552487730979919
F1.09804368019104
F1.1285521984100342
tp642
ababaa(lp643
g2
(g3
g4
Ntp644
Rp645
(lp646
F2.356194490192345
abag2
(g3
g4
Ntp647
Rp648
(lp649
F0.0
abag2
(g11
g4
Ntp650
Rp651
(lp652
g2
(g15
g4
Ntp653
Rp654
(lp655
S'mobile_base'
p656
ag2
(g20
g4
Ntp657
Rp658
(lp659
g2
(g24
g4
Ntp660
Rp661
(lp662
F5.292115849654236
aF5.127038911729086
aF-0.0011307400753624297
abag2
(g28
g4
Ntp663
Rp664
(lp665
F0.003722764234959546
aF-0.001460728814113842
aF0.9240714875452272
aF0.3821987613843534
ababag2
(g32
g4
Ntp666
Rp667
(lp668
g2
(g36
g4
Ntp669
Rp670
(lp671
F0.0001499228024001866
aF0.0001887000171995921
aF-4.219864900448542e-06
abag2
(g36
g4
Ntp672
Rp673
(lp674
F0.0020810862496453424
aF-0.0019270313006251101
aF0.00016140521570037384
ababag43
abag2
(g3
g4
Ntp675
Rp676
(lp677
F2.338589906692505
abag2
(g3
g4
Ntp678
Rp679
(lp680
F-0.23341822624206543
abag2
(g50
g4
Ntp681
Rp682
(lp683
(F0.9780076742172241
F1.1626964807510376
F1.07453191280365
F1.0401954650878906
F0.9624999165534973
F0.9773234724998474
F0.9929296374320984
F0.937437117099762
F1.2278499603271484
F1.0297739505767822
F0.8177543878555298
F0.9131699204444885
F0.953106701374054
F0.8140985369682312
F0.890189528465271
F0.912006676197052
F1.0619055032730103
F0.9703062772750854
F1.0168405771255493
F0.9330428242683411
F0.9768866300582886
F0.9839119911193848
F0.7798958420753479
F1.0470691919326782
F0.9892666339874268
F0.8462015986442566
F0.9165995121002197
F1.023101806640625
F1.09626305103302
F0.8295769095420837
Fnan
F0.7996148467063904
F0.9262127876281738
Fnan
F0.896094024181366
F0.7160319089889526
F1.086921215057373
F0.8875657916069031
F1.144960880279541
F1.0071970224380493
F1.1357568502426147
F0.9888888001441956
F0.9478774666786194
F0.8753280639648438
F1.0900094509124756
F1.0227233171463013
F1.0659332275390625
F0.8945887684822083
F1.136417269706726
F1.0589357614517212
F1.0348947048187256
F0.874018669128418
F1.0295475721359253
F0.9876952171325684
tp684
ababaa.