(lp0
(lp1
F-1.5707963267948966
aF0.0
a(lp2
F-5.999167698847325
aF1.0102758362614983
aF-0.0011307178648412297
aa(lp3
F-0.0028113580187200827
aF-0.0028432281532509013
aF-0.7072269109453194
aF0.7069753240067863
aa(F1.9332325458526611
F2.0367207527160645
F2.2505829334259033
F2.2106969356536865
F2.219777822494507
F2.463474750518799
F2.6081907749176025
F2.6723473072052
F2.8511507511138916
F3.143005847930908
F3.2022435665130615
F3.443331480026245
F3.39794659614563
F3.831529378890991
F4.2399420738220215
F4.277214050292969
F4.777552604675293
Fnan
Fnan
Fnan
Fnan
Fnan
Fnan
Fnan
Fnan
Fnan
Fnan
Fnan
Fnan
Fnan
Fnan
Fnan
Fnan
Fnan
Fnan
Fnan
Fnan
F4.952188491821289
F4.472155570983887
F4.100616455078125
F3.770829916000366
F3.816974401473999
F3.7741029262542725
F3.495154857635498
F3.855243444442749
F3.809126138687134
F3.823965549468994
F3.9911694526672363
F3.8118679523468018
F3.9359419345855713
F2.3173253536224365
F2.4123291969299316
F2.0780322551727295
F1.9711432456970215
tp4
aa(lp5
F-1.5707963267948966
aF1.0
a(lp6
F-5.998681591673699
aF0.010227730655816131
aF-0.0011307559661879185
aa(lp7
F-0.002806481418688823
aF-0.00284824721289308
aF-0.7071592691684628
aF0.7070429825540923
aa(F1.9058538675308228
F2.014814853668213
F2.2850611209869385
F2.2137134075164795
F2.4751534461975098
F2.5936055183410645
F2.5022103786468506
F2.8470540046691895
F2.7855916023254395
F2.9213571548461914
F3.0164694786071777
F3.4369494915008545
F3.3935434818267822
F3.7593612670898438
F4.177989482879639
F4.336623191833496
F4.740108966827393
Fnan
Fnan
Fnan
Fnan
Fnan
Fnan
Fnan
Fnan
Fnan
Fnan
Fnan
Fnan
Fnan
Fnan
Fnan
Fnan
Fnan
Fnan
Fnan
Fnan
F4.9432172775268555
F4.334397315979004
F4.237188339233398
F3.686683177947998
F3.462252378463745
F3.3543457984924316
F3.3067851066589355
F2.878086805343628
F2.7727301120758057
F2.7466623783111572
F2.9728384017944336
F2.843425989151001
F2.8965494632720947
F2.9450457096099854
F2.9427716732025146
F2.770277261734009
F2.9979355335235596
tp8
aa(lp9
F-1.5707963267948966
aF1.0
a(lp10
F-5.997628202477565
aF-0.98986677134216
aF-0.0011309909858008838
aa(lp11
F-0.0028132525842770087
aF-0.002840238385620271
aF-0.7071556810263275
aF0.707046576576113
aa(F1.927302360534668
F2.1275482177734375
F2.396909475326538
F2.173769950866699
F2.401585578918457
F2.4025824069976807
F2.5210585594177246
F2.5582191944122314
F2.8372814655303955
F2.8940834999084473
F3.151970863342285
F3.2558212280273438
F3.5719380378723145
F3.8197948932647705
F4.109490871429443
F4.500679016113281
F4.937303066253662
Fnan
Fnan
Fnan
Fnan
Fnan
Fnan
Fnan
Fnan
Fnan
Fnan
Fnan
Fnan
Fnan
Fnan
Fnan
Fnan
Fnan
Fnan
Fnan
Fnan
Fnan
Fnan
F4.233912467956543
F3.7769596576690674
F3.706343173980713
F3.3530287742614746
F3.0611839294433594
F2.867924690246582
F2.9697370529174805
F2.7623934745788574
F2.3785738945007324
F2.509779453277588
F2.163559913635254
F2.257951259613037
F2.350564479827881
F2.070157289505005
F2.215223550796509
tp12
aa(lp13
F-1.5707963267948966
aF1.0
a(lp14
F-5.997143463782045
aF-1.9899137572364358
aF-0.001130758223648387
aa(lp15
F-0.002811214245394819
aF-0.0028434737687734195
aF-0.7071786494207399
aF0.7070235989942987
aa(F1.8631223440170288
F1.9192534685134888
F2.0699384212493896
F2.2464208602905273
F2.3183767795562744
F2.5166120529174805
F2.520077705383301
F2.6556878089904785
F2.7316408157348633
F2.88120174407959
F3.23551869392395
F3.17280650138855
F3.5542104244232178
F3.8223977088928223
F4.133767604827881
F4.3953728675842285
F4.765510559082031
Fnan
Fnan
Fnan
Fnan
Fnan
Fnan
Fnan
Fnan
Fnan
Fnan
Fnan
Fnan
Fnan
Fnan
Fnan
Fnan
Fnan
Fnan
Fnan
Fnan
Fnan
Fnan
Fnan
Fnan
Fnan
Fnan
F3.086843967437744
F3.2842483520507812
F2.9522249698638916
F2.7297749519348145
F2.5678467750549316
F2.519634485244751
F2.2637991905212402
F2.1841681003570557
F2.1650660037994385
F1.9978666305541992
F1.97857666015625
tp16
aa(lp17
F0.7853981633974483
aF0.0
a(lp18
F-5.996280202401167
aF-1.9899833127455275
aF-0.0011307482198349983
aa(lp19
F0.0015539529014490987
aF-0.003684286901717092
aF0.3826006966557849
aF0.9239051456610219
aa(F3.960764169692993
F3.7752742767333984
F3.5488533973693848
F3.331969976425171
F3.2686543464660645
F3.0668160915374756
F3.0128791332244873
F2.6314539909362793
F2.5697379112243652
F2.3869619369506836
F2.5381312370300293
F2.2291462421417236
F2.210146188735962
F2.106692314147949
F2.048384189605713
F2.1548173427581787
F2.209815502166748
F1.9772361516952515
F1.6631708145141602
F1.7900927066802979
F1.8928195238113403
F1.8413429260253906
F1.7195383310317993
F1.4633070230484009
F1.2591902017593384
F1.6606314182281494
F1.4966922998428345
F1.295411229133606
F1.624581217765808
F1.647119402885437
Fnan
F1.7057044506072998
F1.6899778842926025
Fnan
F1.8199846744537354
F1.9232717752456665
F1.7567905187606812
F1.7863482236862183
F2.063142776489258
F1.9050546884536743
F2.194831609725952
F2.313401937484741
F2.247177839279175
F2.3706374168395996
F2.2338552474975586
F2.5349678993225098
F2.5284736156463623
F2.876455068588257
F2.840373992919922
F3.1138293743133545
F3.1418325901031494
F3.3365113735198975
F3.7422327995300293
F4.120084762573242
tp20
aa(lp21
F0.7853981633974483
aF1.0
a(lp22
F-5.289519087460987
aF-1.282457961734269
aF-0.001130729570444744
aa(lp23
F0.0015653879476751655
aF-0.0036794066251805836
aF0.38252432895399757
aF0.9239367669303747
aa(F1.4504063129425049
F1.2607510089874268
F1.2258816957473755
F1.113402247428894
F1.1087666749954224
F0.9128074645996094
F1.0221103429794312
F1.0080299377441406
F0.8086462020874023
F0.8497944474220276
F0.7505914568901062
F0.8299553990364075
F0.8107629418373108
F0.6569005846977234
F0.6715317368507385
F0.7147415280342102
F0.6552612781524658
F0.7830480933189392
F0.6540574431419373
F0.6409558057785034
F0.6328672766685486
F0.38285139203071594
F0.33350229263305664
F0.4432944357395172
F0.38729429244995117
F0.4377155005931854
F0.5001026391983032
F0.373451292514801
F0.4602648615837097
F0.4921732246875763
Fnan
F0.7130948305130005
F0.4244656264781952
Fnan
F0.6695162057876587
F0.5937615633010864
F0.6343884468078613
F0.6037660241127014
F0.7727277278900146
F0.767696738243103
F0.610360324382782
F0.7875409722328186
F0.7623472213745117
F0.9076562523841858
F0.7333401441574097
F0.6360722780227661
F0.9559929966926575
F1.1391557455062866
F0.9672167897224426
F0.9979490041732788
F1.0141936540603638
F1.189512014389038
F1.2557272911071777
F1.3110311031341553
tp24
aa(lp25
F-0.7853981633974483
aF0.0
a(lp26
F-5.290554612133194
aF-1.2811578229257372
aF-0.0011307578669088603
aa(lp27
F-0.0014974472032718308
aF-0.003707673114153843
aF-0.3835905414334723
aF0.9234946168412286
aa(F1.3554822206497192
F1.3164304494857788
F1.5551646947860718
F1.3384078741073608
F1.3114553689956665
F1.1184748411178589
F1.182572364807129
F1.399882197380066
F1.2550309896469116
F1.2977797985076904
F1.4766203165054321
F1.469153881072998
F1.4260450601577759
F1.4214850664138794
F1.5234301090240479
F1.6382145881652832
F1.63433837890625
F1.551317572593689
F1.680513858795166
F1.5737272500991821
F1.6299059391021729
F1.6912583112716675
F1.6968640089035034
F1.82755446434021
F1.728837251663208
F1.582861065864563
F1.7239270210266113
F1.783089280128479
F1.6676667928695679
F1.9000433683395386
Fnan
F1.7212514877319336
F2.056626081466675
Fnan
F2.2224154472351074
F2.1621060371398926
F2.263192892074585
F2.2329254150390625
F2.4664342403411865
F2.375206708908081
F2.610361337661743
F2.6050517559051514
F2.7918241024017334
F2.763838291168213
F2.946202516555786
F2.9946134090423584
F3.4217746257781982
F3.338594436645508
F3.5552573204040527
F3.8766276836395264
F4.054994583129883
F4.395097732543945
F4.698661804199219
Fnan
tp28
aa(lp29
F-0.7853981633974483
aF1.0
a(lp30
F-4.583049185171026
aF-1.98793830552207
aF-0.0011307593117070858
aa(lp31
F-0.0014928340146563308
aF-0.0037095547072938453
aF-0.3828393948167437
aF0.9238062613052738
aa(F0.5705386996269226
F0.4790136218070984
F0.581363320350647
F0.5508910417556763
F0.6445212364196777
F0.5649033188819885
F0.694423496723175
F0.64670330286026
F0.6522940993309021
F0.7111315131187439
F0.5146816968917847
F0.6026639938354492
F0.7431195974349976
F0.7220430374145508
F0.7153672575950623
F0.8393880724906921
F0.7737292051315308
F0.7839615345001221
F0.8353316187858582
F0.9621242880821228
F0.7991191148757935
F0.7000723481178284
F0.8408576846122742
F0.8111965656280518
F0.7469779253005981
F0.8822088837623596
F0.867180347442627
F0.935824990272522
F0.8501147627830505
F0.9840691089630127
Fnan
F0.7423317432403564
F0.937337338924408
Fnan
F0.9378719925880432
F0.9194117784500122
F0.9521223902702332
F0.8985771536827087
F1.0755196809768677
F1.1740901470184326
F1.1013803482055664
F1.3606324195861816
F1.2504925727844238
F1.2723685503005981
F1.4180593490600586
F1.472946286201477
F1.6004544496536255
F1.759953260421753
F1.5334385633468628
F1.6072797775268555
F1.9436317682266235
F1.9242520332336426
F2.1010661125183105
F2.1726114749908447
tp32
aa(lp33
I0
aF0.0
a(lp34
F-4.582224915709867
aF-1.9872392693729677
aF-0.0011307407171670947
aa(lp35
F1.6063472444945994e-05
aF-0.003998346139071624
aF0.0007278637180770252
aF0.9999917415581617
aa(F0.9885891079902649
F1.0930343866348267
F1.0626543760299683
F1.1375956535339355
F1.2560710906982422
F0.9589232802391052
F1.3556528091430664
F1.1977779865264893
F1.3833858966827393
F1.5946847200393677
F1.6498345136642456
F1.7077440023422241
F1.8697906732559204
F1.9547104835510254
F2.059937000274658
F2.333475351333618
F2.4874637126922607
F2.7620575428009033
F3.0873141288757324
F3.4787449836730957
Fnan
Fnan
Fnan
Fnan
Fnan
Fnan
Fnan
Fnan
Fnan
Fnan
Fnan
Fnan
F4.969152927398682
Fnan
F4.891474723815918
F4.942366123199463
F4.898230075836182
F4.8246965408325195
F4.709784030914307
F4.925865173339844
F3.771542549133301
F3.5078184604644775
F3.3776912689208984
F3.009594440460205
F2.782144784927368
F2.6800572872161865
F2.4270224571228027
F2.5732808113098145
F2.3655765056610107
F2.2488975524902344
F2.1661643981933594
F2.064807653427124
F2.1310112476348877
F2.034954071044922
tp36
aa(lp37
I0
aF1.0
a(lp38
F-3.5821940134258035
aF-1.9869253101626898
aF-0.0011307493255895418
aa(lp39
F2.6104574283368187e-05
aF-0.003998504914561535
aF9.761792961838078e-05
aF0.9999920008418763
aa(F0.9590815305709839
F1.0772122144699097
F1.0744937658309937
F1.319744348526001
F1.1430021524429321
F1.2551766633987427
F1.1857482194900513
F1.5206910371780396
F1.3523130416870117
F1.593019723892212
F1.5458298921585083
F1.8557112216949463
F1.8493545055389404
F2.044288396835327
F1.8219807147979736
F2.1822731494903564
F2.4458296298980713
F4.884037494659424
F5.007848739624023
F4.876596450805664
F4.829751491546631
F4.54869270324707
F4.576746940612793
F4.649949550628662
F4.329289436340332
F4.4002485275268555
F4.448105335235596
F4.3514204025268555
F4.348238945007324
F4.226241588592529
Fnan
F4.317284107208252
F4.199287414550781
Fnan
F4.067532062530518
F3.848756790161133
F3.901724338531494
F3.9405202865600586
F3.8557491302490234
F3.6780571937561035
F3.7899246215820312
F3.7409794330596924
F3.667060613632202
F3.794440507888794
F3.794311761856079
F2.668255090713501
F2.7852323055267334
F2.500643014907837
F2.5269269943237305
F2.2790133953094482
F2.2955408096313477
F2.1248130798339844
F2.0253796577453613
F1.7738193273544312
tp40
aa(lp41
I0
aF0.0
a(lp42
F-3.5821491734587902
aF-1.9864293465024419
aF-0.001130737113605229
aa(lp43
F3.375149539913366e-05
aF-0.003998560945168011
aF-6.567195020773002e-05
aF0.9999920029972236
aa(F1.2039213180541992
F1.1669238805770874
F0.94660484790802
F1.1254770755767822
F1.221319556236267
F1.0614404678344727
F1.3066247701644897
F1.3935058116912842
F1.4463160037994385
F1.3545235395431519
F1.637020468711853
F1.6053894758224487
F1.706761121749878
F2.071225881576538
F1.9596027135849
F2.2123780250549316
F2.347447156906128
F4.924715518951416
F5.069104194641113
F4.853145122528076
F4.73616886138916
F4.630702018737793
F4.727223873138428
F4.4965739250183105
F4.412777900695801
F4.469613075256348
F4.5347113609313965
F4.2442216873168945
F4.147862911224365
F4.245455265045166
Fnan
F4.1447434425354
F4.068375587463379
Fnan
F4.178513050079346
F3.8930275440216064
F3.955764055252075
F4.016529560089111
F3.994328260421753
F3.8977625370025635
F3.884716749191284
F3.6405274868011475
F3.790025234222412
F3.6450321674346924
F3.7058231830596924
F2.8007912635803223
F2.6080219745635986
F2.6634411811828613
F2.5896480083465576
F2.351121664047241
F2.0969345569610596
F2.074373483657837
F2.0647764205932617
F2.01133131980896
tp44
aa.