(lp0
(lp1
F-1.5707963267948966
aF0.0
a(lp2
F-5.999815045974127
aF1.0046787168788531
aF-0.0011307395406629506
aa(lp3
F-0.0028068300835719473
aF-0.0028479353482082125
aF-0.7070425587127304
aF0.70715969281209
aa(F2.1179943084716797
F2.222790479660034
F1.9787174463272095
F2.2638256549835205
F2.291626453399658
F2.2313950061798096
F2.50978946685791
F2.708451986312866
F2.611565351486206
F2.8169755935668945
F2.926626682281494
F3.1896417140960693
F3.517463207244873
F3.7895307540893555
F3.9396321773529053
F4.568924427032471
F4.87296724319458
Fnan
Fnan
Fnan
Fnan
Fnan
Fnan
Fnan
Fnan
Fnan
Fnan
Fnan
Fnan
Fnan
Fnan
Fnan
Fnan
Fnan
Fnan
Fnan
Fnan
F4.997899055480957
F4.557654857635498
F4.260622501373291
F4.032649993896484
F3.711721181869507
F3.6966731548309326
F3.843524932861328
F3.7764952182769775
F3.9883077144622803
F3.829916477203369
F3.781815528869629
F3.7057743072509766
F4.185483932495117
F2.3048317432403564
F2.1876795291900635
F2.0838637351989746
F1.9467464685440063
tp4
aa(lp5
F-1.5707963267948966
aF1.0
a(lp6
F-5.999722903399136
aF0.004670329170900573
aF-0.0011307381351569334
aa(lp7
F-0.002808006254532431
aF-0.0028467899223651332
aF-0.7072197631770344
aF0.706982473233836
aa(F1.9662284851074219
F2.134089469909668
F2.027311086654663
F2.2491683959960938
F2.174041271209717
F2.5466864109039307
F2.689666986465454
F2.5516815185546875
F2.73860764503479
F3.0405805110931396
F3.0670359134674072
F3.32869029045105
F3.532043933868408
F3.7146501541137695
F4.050140380859375
F4.449772357940674
F4.685856342315674
Fnan
Fnan
Fnan
Fnan
Fnan
Fnan
Fnan
Fnan
Fnan
Fnan
Fnan
Fnan
Fnan
Fnan
Fnan
Fnan
Fnan
Fnan
Fnan
Fnan
F5.08036470413208
F4.594976902008057
F4.27547550201416
F3.959233045578003
F3.5717666149139404
F3.384592056274414
F3.309946060180664
F2.8651089668273926
F2.7082300186157227
F2.899740695953369
F2.7485504150390625
F2.9350194931030273
F2.9846067428588867
F3.078556776046753
F2.8919382095336914
F3.0514190196990967
F3.109020948410034
tp8
aa(lp9
F-1.5707963267948966
aF1.0
a(lp10
F-5.999416743174669
aF-0.9953572361762062
aF-0.0011307683100669763
aa(lp11
F-0.0027871125116889135
aF-0.002867637032654166
aF-0.7071537828181925
aF0.7070484680045751
aa(F2.059642791748047
F1.9835630655288696
F2.201275110244751
F2.2565042972564697
F2.392376661300659
F2.463101863861084
F2.440634250640869
F2.793424606323242
F2.7432825565338135
F2.944861888885498
F3.097846269607544
F3.262181520462036
F3.477785110473633
F3.666097402572632
F4.196784973144531
F4.3441619873046875
F4.681879043579102
Fnan
Fnan
Fnan
Fnan
Fnan
Fnan
Fnan
Fnan
Fnan
Fnan
Fnan
Fnan
Fnan
Fnan
Fnan
Fnan
Fnan
Fnan
Fnan
Fnan
Fnan
Fnan
F4.244649887084961
F3.961925745010376
F3.8109445571899414
F3.1977787017822266
F3.144446849822998
F2.9061713218688965
F2.70900559425354
F2.6346943378448486
F2.601128339767456
F2.399074077606201
F2.2222752571105957
F2.286750078201294
F2.259000539779663
F2.072816848754883
F1.9848979711532593
tp12
aa(lp13
F-1.5707963267948966
aF1.0
a(lp14
F-5.999105838981419
aF-1.9953835554524866
aF-0.0011309911111138937
aa(lp15
F-0.00280499583909325
aF-0.0028485030794483147
aF-0.7072227213051251
aF0.7069795191505355
aa(F2.1029160022735596
F2.221686601638794
F2.058673143386841
F2.1686902046203613
F2.377774477005005
F2.3734495639801025
F2.522043466567993
F2.6855645179748535
F2.852997064590454
F2.8609611988067627
F3.1550135612487793
F3.2255823612213135
F3.6620912551879883
F3.732034206390381
F4.1677141189575195
F4.461435317993164
F4.908947944641113
Fnan
Fnan
Fnan
Fnan
Fnan
Fnan
Fnan
Fnan
Fnan
Fnan
Fnan
Fnan
Fnan
Fnan
Fnan
Fnan
Fnan
Fnan
Fnan
Fnan
Fnan
Fnan
Fnan
Fnan
Fnan
Fnan
F3.036358594894409
F3.1664798259735107
F2.837651014328003
F2.6647753715515137
F2.723513126373291
F2.379068613052368
F2.4187211990356445
F2.2289836406707764
F2.2260632514953613
F1.8666521310806274
F2.2897098064422607
tp16
aa(lp17
I0
aF0.0
a(lp18
F-5.998802197922226
aF-1.9953982777518207
aF-0.0011309907735900793
aa(lp19
F2.4783564254098913e-05
aF-0.003997626618540153
aF-0.00019622297586895335
aF0.9999919898997879
aa(F1.1351066827774048
F1.3024119138717651
F1.2656956911087036
F1.350263237953186
F1.1468567848205566
F1.160131573677063
F1.2621110677719116
F1.2637455463409424
F1.4612743854522705
F1.2987887859344482
F1.3917129039764404
F1.4878751039505005
F1.783597707748413
F1.839467167854309
F2.0529379844665527
F2.2262351512908936
F2.536332607269287
F2.7474184036254883
F3.084059476852417
F3.4283175468444824
F3.7841548919677734
F4.6113691329956055
Fnan
Fnan
Fnan
Fnan
Fnan
Fnan
Fnan
Fnan
Fnan
Fnan
Fnan
Fnan
Fnan
Fnan
Fnan
F4.822214126586914
F4.571734428405762
F4.144735813140869
F3.91219425201416
F3.6875460147857666
F3.374021530151367
F3.1967244148254395
F3.0345959663391113
F2.7605862617492676
F2.6407337188720703
F2.411351442337036
F2.5482730865478516
F2.423093557357788
F2.2154057025909424
F2.2541868686676025
F1.9484010934829712
F2.0623466968536377
tp20
aa(lp21
I0
aF1.0
a(lp22
F-4.998782037959835
aF-1.9951860936690906
aF-0.001131184319809686
aa(lp23
F8.541154514192745e-05
aF-0.003998173402368862
aF-8.180236861220483e-05
aF0.9999920002793448
aa(F1.087806224822998
F1.1147785186767578
F1.0764350891113281
F1.1755197048187256
F1.2578840255737305
F1.2161611318588257
F1.368813395500183
F1.4644166231155396
F1.390436053276062
F1.4164445400238037
F1.5220097303390503
F1.5667697191238403
F1.851392388343811
F1.9565684795379639
F2.0981733798980713
F2.069129467010498
F2.393080949783325
F2.8134641647338867
F2.885300397872925
F3.182131052017212
F3.7503225803375244
Fnan
Fnan
Fnan
Fnan
Fnan
Fnan
Fnan
Fnan
Fnan
Fnan
Fnan
Fnan
Fnan
Fnan
Fnan
Fnan
Fnan
F5.331703186035156
F4.041889190673828
F3.848682403564453
F3.547239065170288
F3.318934202194214
F3.0590412616729736
F3.064913034439087
F2.834348678588867
F2.7848236560821533
F2.617814540863037
F2.475468158721924
F2.3998687267303467
F2.1032843589782715
F1.9941257238388062
F2.118155002593994
F2.0459349155426025
tp24
aa(lp25
I0
aF1.0
a(lp26
F-3.998760651139357
aF-1.9949633504105277
aF-0.0011305949059114695
aa(lp27
F6.737297477270162e-05
aF-0.003997916597813096
aF-8.39188025234367e-05
aF0.9999920025087171
aa(F1.0366605520248413
F1.0714961290359497
F1.0746464729309082
F1.15273118019104
F1.1805062294006348
F1.1427489519119263
F1.4305999279022217
F1.359110951423645
F1.4152745008468628
F1.4703046083450317
F1.765725016593933
F1.7157400846481323
F2.008286714553833
F1.8235377073287964
F2.0986170768737793
F2.4684135913848877
F2.4095702171325684
F2.666598081588745
F2.9203763008117676
Fnan
Fnan
Fnan
Fnan
F5.003227710723877
F4.760528564453125
F4.953001499176025
F4.9813232421875
F4.6467695236206055
F4.794726848602295
F4.676694869995117
Fnan
F4.596340656280518
F4.363271236419678
Fnan
F4.545131206512451
F4.3782758712768555
F4.340572834014893
F4.324048042297363
F4.246100425720215
F4.263417720794678
F4.364900588989258
F4.024042129516602
F4.0853400230407715
F3.1304943561553955
F3.086117744445801
F2.8690786361694336
F2.61042857170105
F2.5986745357513428
F2.514441728591919
F2.2424440383911133
F2.2036798000335693
F2.1536612510681152
F2.054920196533203
F1.953696370124817
tp28
aa(lp29
I0
aF1.0
a(lp30
F-2.998749914214687
aF-1.9948481072171391
aF-0.0011307405117273739
aa(lp31
F3.535463010870275e-05
aF-0.003998520924069146
aF0.0005323940391866823
aF0.9999918635354273
aa(F1.0634791851043701
F1.229401707649231
F1.110569715499878
F1.1376467943191528
F1.2891919612884521
F1.3199820518493652
F1.2124943733215332
F1.4303332567214966
F1.5304406881332397
F1.480946660041809
F1.561469554901123
F1.400852084159851
F1.8497833013534546
F1.7524023056030273
F2.2507338523864746
F4.5961833000183105
F4.512765884399414
F4.605318546295166
F4.562620639801025
F4.3434834480285645
F4.2539381980896
F4.273722171783447
F4.104773044586182
F3.8768346309661865
F3.825315237045288
F3.7033638954162598
F3.6081626415252686
F3.9180524349212646
F3.7644920349121094
F3.810490608215332
Fnan
F3.5077342987060547
F3.505584478378296
Fnan
F3.4451382160186768
F3.4109957218170166
F3.295837640762329
F3.2701354026794434
F3.2589073181152344
F3.2599687576293945
F3.3220114707946777
F3.2197134494781494
F3.1784791946411133
F3.27750301361084
F3.321831226348877
F3.2425384521484375
F3.073728561401367
F3.0221855640411377
F3.2075355052948
F3.3926103115081787
F2.2405989170074463
F2.1038005352020264
F2.0574138164520264
F1.945115089416504
tp32
aa(lp33
I0
aF1.0
a(lp34
F-1.9987430534503605
aF-1.994746087175941
aF-0.0011309905208242155
aa(lp35
F2.6922996591604177e-05
aF-0.003997627804754116
aF-0.00019230376212014936
aF0.9999919906010997
aa(F0.9421091675758362
F1.1068718433380127
F1.180221676826477
F1.147490382194519
F1.0839370489120483
F4.074584484100342
F4.416892051696777
F4.055877685546875
F4.0468316078186035
F3.918919801712036
F3.6805646419525146
F3.5381314754486084
F3.5754268169403076
F3.455021381378174
F3.50333571434021
F3.313246726989746
F3.345600128173828
F3.4894118309020996
F3.230595588684082
F2.9628069400787354
F3.1461780071258545
F2.930324077606201
F3.054600477218628
F2.929218292236328
F2.89213490486145
F2.6637990474700928
F2.745561122894287
F2.563316583633423
F2.7003021240234375
F2.5374159812927246
Fnan
F2.455660343170166
F2.481822967529297
Fnan
F2.53943133354187
F2.524543285369873
F2.5302140712738037
F2.4297473430633545
F2.5122554302215576
F2.4411776065826416
F2.477339267730713
F2.4358980655670166
F2.5621562004089355
F2.3721768856048584
F2.405186653137207
F2.4296820163726807
F2.456766128540039
F2.2434017658233643
F2.282130002975464
F2.383061647415161
F2.146353244781494
F2.341092824935913
F2.3798611164093018
F2.245180368423462
tp36
aa(lp37
I0
aF1.0
a(lp38
F-0.998730763585943
aF-1.994629377444441
aF-0.0011307418367297317
aa(lp39
F3.007889104614245e-05
aF-0.0039985332909331095
aF-0.00019357417987091668
aF0.9999919866458022
aa(F3.305973529815674
F3.2346577644348145
F3.091177225112915
F2.96413254737854
F2.8398354053497314
F2.7422804832458496
F2.476055383682251
F2.455465793609619
F2.766479969024658
F2.400952100753784
F2.2801742553710938
F2.208559989929199
F2.24409818649292
F2.3121747970581055
F2.066345691680908
F2.180917739868164
F1.9525401592254639
F1.966207504272461
F2.0622618198394775
F1.981109380722046
F1.9881792068481445
F2.16361141204834
F1.9038177728652954
F1.7127338647842407
F1.90793776512146
F1.7695133686065674
F1.9265856742858887
F1.601706624031067
F1.8638510704040527
F1.7597700357437134
Fnan
F1.555173397064209
F1.6344540119171143
Fnan
F1.5583657026290894
F1.5007392168045044
F1.5190285444259644
F1.5628228187561035
F1.4795337915420532
F1.5926533937454224
F1.6215968132019043
F1.4506635665893555
F1.561833143234253
F1.4922891855239868
F1.7191113233566284
F1.514458417892456
F1.3663322925567627
F1.4605659246444702
F1.3994694948196411
F1.6221140623092651
F1.452475666999817
F1.5749591588974
F1.4640685319900513
F1.3977887630462646
tp40
aa(lp41
I0
aF1.0
a(lp42
F0.0012814917427079729
aF-1.994451741819814
aF-0.0011307152648731
aa(lp43
F2.7278429301561272e-05
aF-0.00399840978225111
aF-0.000191826574563729
aF0.9999919875567334
aa(F1.3406462669372559
F1.278318166732788
F1.2420464754104614
F1.2815563678741455
F1.2144217491149902
F1.1284136772155762
F1.1428709030151367
F1.005871057510376
F1.0581527948379517
F0.8742738366127014
F0.8786057233810425
F0.9683182835578918
F1.0600612163543701
F1.0093963146209717
F0.9137493371963501
F0.8180862069129944
F0.7580735087394714
F0.7701384425163269
F0.8528301119804382
F0.8885202407836914
F0.8388397097587585
F0.9513409733772278
F0.6810900568962097
F0.591712236404419
F0.7699439525604248
F0.7694903612136841
F0.6425369381904602
F0.7958626747131348
F0.695923388004303
F0.8692449331283569
Fnan
F0.7541738152503967
F0.6460856795310974
Fnan
F0.6924184560775757
F0.711963951587677
F0.6651834845542908
F0.6604036092758179
F0.8530438542366028
F0.5840882062911987
F0.7066029906272888
F0.7686203122138977
F0.6241225004196167
F0.3686191439628601
F0.6642144918441772
F0.5497311353683472
F0.6274738311767578
F0.590948224067688
F0.5655251145362854
F0.4610256850719452
F0.8255242109298706
F0.5243027210235596
F0.5736507773399353
F0.6935436725616455
tp44
aa(lp45
F-0.7853981633974483
aF0.0
a(lp46
F0.0015679166861325144
aF-1.9917508742948162
aF-0.001130739946379855
aa(lp47
F-0.0015072142047446704
aF-0.003703689385646223
aF-0.3828439819812815
aF0.9238043604849417
aa(F1.2934319972991943
F1.5048635005950928
F1.4866164922714233
F1.5448558330535889
F1.6478190422058105
F1.6924810409545898
F1.9294131994247437
F2.100020408630371
F1.9019564390182495
F1.923296332359314
F2.0200459957122803
F2.134941339492798
F2.097644567489624
F2.4288651943206787
F2.2405903339385986
Fnan
Fnan
Fnan
Fnan
Fnan
Fnan
Fnan
Fnan
Fnan
Fnan
Fnan
Fnan
F2.7138750553131104
F2.4576780796051025
F2.319225311279297
Fnan
F2.03977370262146
F1.9630800485610962
Fnan
F1.8236864805221558
F1.7008640766143799
F1.486619234085083
F1.4725086688995361
F1.3712232112884521
F1.3750591278076172
F1.4228204488754272
F1.219548225402832
F1.2479040622711182
F1.2010446786880493
F1.115986943244934
F1.0827010869979858
F1.095088005065918
F1.0485588312149048
F0.9291963577270508
F1.1163673400878906
F0.9583072662353516
F0.6770974397659302
F0.7255311608314514
F1.005535364151001
tp48
aa(lp49
F-0.7853981633974483
aF1.0
a(lp50
F0.7091902579145162
aF-2.6984346038975935
aF-0.001130755725807009
aa(lp51
F-0.001507415370497668
aF-0.0037035343422009573
aF-0.3827400497894919
aF0.9238474256171384
aa(F1.406843900680542
F1.1799737215042114
F1.3945907354354858
F1.5447813272476196
F1.483085036277771
F1.4235303401947021
F1.4455666542053223
F4.820191383361816
F4.735339164733887
F4.978052616119385
F4.84882926940918
F4.961824893951416
F4.838010311126709
F5.177669525146484
F5.0111212730407715
Fnan
Fnan
Fnan
Fnan
Fnan
Fnan
Fnan
Fnan
Fnan
Fnan
F4.947536945343018
F4.794657230377197
F1.868527889251709
F1.7750691175460815
F1.5737265348434448
Fnan
F1.466873049736023
F1.3131004571914673
Fnan
F1.2707964181900024
F1.1036384105682373
F1.0904066562652588
F1.0883519649505615
F1.0592567920684814
F0.913127064704895
F0.6388890147209167
F0.665347695350647
F0.9035443067550659
F0.7516855001449585
F0.8394283652305603
F0.7374635338783264
F0.7277058362960815
F0.6610362529754639
F0.5581780672073364
F0.6158812046051025
F0.6171746253967285
F0.6136244535446167
F0.7196482419967651
F0.48135820031166077
tp52
aa(lp53
F-0.7853981633974483
aF0.0
a(lp54
F0.710004628491151
aF-2.6977624674224967
aF-0.0011307372050470554
aa(lp55
F-0.0015010593439931216
aF-0.0037062345904820128
aF-0.3825957963381615
aF0.9239071745962222
aa(F1.0327304601669312
F1.3312312364578247
F1.3446897268295288
F1.3916569948196411
F1.3882405757904053
F1.4587126970291138
F1.374295711517334
F4.677285194396973
F4.789730548858643
F4.7598700523376465
F4.828269958496094
F4.951688766479492
F5.115181922912598
F5.093739986419678
F5.0279316902160645
Fnan
Fnan
Fnan
Fnan
Fnan
Fnan
Fnan
Fnan
Fnan
F4.904024600982666
F4.832666397094727
F4.8466715812683105
F2.1109070777893066
F1.7932703495025635
F1.4813567399978638
Fnan
F1.2167946100234985
F1.359028935432434
Fnan
F1.3554869890213013
F0.9551810026168823
F1.1001734733581543
F1.0174775123596191
F0.927645742893219
F0.8719993829727173
F1.0291134119033813
F0.8302802443504333
F0.6799207925796509
F0.7830027341842651
F0.5868515372276306
F0.7172673344612122
F0.7051562666893005
F0.6262234449386597
F0.7435421943664551
F0.690750002861023
F0.7678888440132141
F0.6234053373336792
F0.5363021492958069
F0.784479558467865
tp56
aa.