(lp0
(lp1
ccopy_reg
_reconstructor
p2
(cstd_msgs.msg._Float32
Float32
p3
c__builtin__
object
p4
Ntp5
Rp6
(lp7
F0.7853981633974483
abag2
(g3
g4
Ntp8
Rp9
(lp10
F0.0
abag2
(cturtlebot_ctrl.srv._TurtleBotControl
TurtleBotControlResponse
p11
g4
Ntp12
Rp13
(lp14
g2
(cgazebo_msgs.msg._ModelState
ModelState
p15
g4
Ntp16
Rp17
(lp18
S'mobile_base'
p19
ag2
(cgeometry_msgs.msg._Pose
Pose
p20
g4
Ntp21
Rp22
(lp23
g2
(cgeometry_msgs.msg._Point
Point
p24
g4
Ntp25
Rp26
(lp27
F6.0000309634047415
aF1.003797257023468
aF-0.001130751442159128
abag2
(cgeometry_msgs.msg._Quaternion
Quaternion
p28
g4
Ntp29
Rp30
(lp31
F0.0015554748355611054
aF-0.0036836594820582234
aF0.38318447391548427
aF0.9236631800071764
ababag2
(cgeometry_msgs.msg._Twist
Twist
p32
g4
Ntp33
Rp34
(lp35
g2
(cgeometry_msgs.msg._Vector3
Vector3
p36
g4
Ntp37
Rp38
(lp39
F-7.810435626154187e-05
aF7.768622999807957e-05
aF1.2476373002227997e-05
abag2
(g36
g4
Ntp40
Rp41
(lp42
F-0.0002522421658314823
aF-0.0002762939493263583
aF-0.00028104328244195917
ababaS''
p43
abag2
(g3
g4
Ntp44
Rp45
(lp46
F0.6838497519493103
abag2
(g3
g4
Ntp47
Rp48
(lp49
F0.015542557463049889
abag2
(cturtlebot_ctrl.msg._TurtleBotScan
TurtleBotScan
p50
g4
Ntp51
Rp52
(lp53
(F4.086835861206055
F4.194835662841797
F4.39492654800415
F4.321438312530518
F4.1569013595581055
F4.306396007537842
F4.043126106262207
F4.232357978820801
F4.342818260192871
F4.415964126586914
F4.416989326477051
F4.547055721282959
F4.895186424255371
F4.789053916931152
F4.831536769866943
F4.892911434173584
F4.944960594177246
F4.869991779327393
F4.915885925292969
F5.036191940307617
Fnan
Fnan
Fnan
Fnan
Fnan
Fnan
Fnan
Fnan
Fnan
Fnan
Fnan
Fnan
Fnan
Fnan
Fnan
Fnan
Fnan
Fnan
Fnan
Fnan
Fnan
Fnan
Fnan
Fnan
Fnan
Fnan
Fnan
Fnan
Fnan
Fnan
Fnan
Fnan
F5.289916038513184
F5.144826412200928
tp54
ababaa(lp55
g2
(g3
g4
Ntp56
Rp57
(lp58
F0.7853981633974483
abag2
(g3
g4
Ntp59
Rp60
(lp61
F1.0
abag2
(g11
g4
Ntp62
Rp63
(lp64
g2
(g15
g4
Ntp65
Rp66
(lp67
S'mobile_base'
p68
ag2
(g20
g4
Ntp69
Rp70
(lp71
g2
(g24
g4
Ntp72
Rp73
(lp74
F6.707067145466963
aF1.7109878007034114
aF-0.0011309907437901112
abag2
(g28
g4
Ntp75
Rp76
(lp77
F0.0015548187215139802
aF-0.0036829524847795956
aF0.38317369098588533
aF0.9236676571884455
ababag2
(g32
g4
Ntp78
Rp79
(lp80
g2
(g36
g4
Ntp81
Rp82
(lp83
F-6.703179655531585e-05
aF4.4482606303061236e-05
aF-1.3737112156621581e-05
abag2
(g36
g4
Ntp84
Rp85
(lp86
F-0.0005212649589362031
aF-0.00026994836582163183
aF-0.00018541429076251393
ababag43
abag2
(g3
g4
Ntp87
Rp88
(lp89
F0.9582231044769287
abag2
(g3
g4
Ntp90
Rp91
(lp92
F0.9625134468078613
abag2
(g50
g4
Ntp93
Rp94
(lp95
(F3.498307466506958
F3.4966537952423096
F3.560558795928955
F3.4027140140533447
F3.6587729454040527
F3.6734819412231445
F3.5040011405944824
F3.6925575733184814
F3.449507474899292
F3.80991268157959
F3.8404619693756104
F3.7466578483581543
F3.7039332389831543
F3.7744081020355225
F4.068406105041504
F3.9471595287323
F4.0023322105407715
F4.053898811340332
F4.086842060089111
F4.08786153793335
F4.198970794677734
F4.379670143127441
F4.324104309082031
F4.591041564941406
F4.49328088760376
F4.538266658782959
F4.654105186462402
F4.856595516204834
F4.804415702819824
F4.8150787353515625
Fnan
Fnan
Fnan
Fnan
Fnan
Fnan
Fnan
Fnan
Fnan
Fnan
Fnan
Fnan
Fnan
Fnan
Fnan
Fnan
Fnan
Fnan
Fnan
Fnan
Fnan
Fnan
Fnan
Fnan
tp96
ababaa(lp97
g2
(g3
g4
Ntp98
Rp99
(lp100
F0.7853981633974483
abag2
(g3
g4
Ntp101
Rp102
(lp103
F1.0
abag2
(g11
g4
Ntp104
Rp105
(lp106
g2
(g15
g4
Ntp107
Rp108
(lp109
S'mobile_base'
p110
ag2
(g20
g4
Ntp111
Rp112
(lp113
g2
(g24
g4
Ntp114
Rp115
(lp116
F7.414116920034955
aF2.41816254232136
aF-0.001130768267576493
abag2
(g28
g4
Ntp117
Rp118
(lp119
F0.0015551148194023914
aF-0.00368372873681596
aF0.38318894262758674
aF0.9236613264657367
ababag2
(g32
g4
Ntp120
Rp121
(lp122
g2
(g36
g4
Ntp123
Rp124
(lp125
F-0.00012105876960781909
aF0.00014879635883856293
aF7.254324666276517e-06
abag2
(g36
g4
Ntp126
Rp127
(lp128
F0.00020349857118983524
aF0.00016914693826905578
aF-0.0002761621779553213
ababag43
abag2
(g3
g4
Ntp129
Rp130
(lp131
F0.7316728234291077
abag2
(g3
g4
Ntp132
Rp133
(lp134
F1.0293959379196167
abag2
(g50
g4
Ntp135
Rp136
(lp137
(F2.9398908615112305
F2.7025020122528076
F2.922279119491577
F2.8966064453125
F2.7728068828582764
F2.736503839492798
F3.0375142097473145
F3.001415252685547
F2.905503273010254
F2.964282274246216
F2.887777090072632
F3.0313920974731445
F2.935422897338867
F3.052722215652466
F2.901419162750244
F3.191283702850342
F3.2016544342041016
F3.212754726409912
F3.2887234687805176
F3.3099918365478516
F3.23542857170105
F3.5354485511779785
F3.450005292892456
F3.514765501022339
F3.739841938018799
F3.8899457454681396
F3.9556021690368652
F3.7045536041259766
F3.8484506607055664
F3.9966795444488525
Fnan
F3.977156162261963
F4.219204425811768
Fnan
F4.367730140686035
F4.750392913818359
F4.885218143463135
F4.7303547859191895
F4.889623641967773
F4.883114337921143
Fnan
Fnan
Fnan
Fnan
Fnan
Fnan
Fnan
Fnan
Fnan
Fnan
Fnan
Fnan
Fnan
Fnan
tp138
ababaa(lp139
g2
(g3
g4
Ntp140
Rp141
(lp142
F0.7853981633974483
abag2
(g3
g4
Ntp143
Rp144
(lp145
F1.0
abag2
(g11
g4
Ntp146
Rp147
(lp148
g2
(g15
g4
Ntp149
Rp150
(lp151
S'mobile_base'
p152
ag2
(g20
g4
Ntp153
Rp154
(lp155
g2
(g24
g4
Ntp156
Rp157
(lp158
F8.12115407813241
aF3.1253519285800015
aF-0.0011307244135489725
abag2
(g28
g4
Ntp159
Rp160
(lp161
F0.0015503526029035685
aF-0.003685646371642981
aF0.38249557001200263
aF0.9239486735413516
ababag2
(g32
g4
Ntp162
Rp163
(lp164
g2
(g36
g4
Ntp165
Rp166
(lp167
F-4.6947291211821404e-05
aF9.424781280215056e-05
aF3.731351287410407e-05
abag2
(g36
g4
Ntp168
Rp169
(lp170
F-0.0002925129867537442
aF-0.0005146513783699521
aF-0.00020564912593440328
ababag43
abag2
(g3
g4
Ntp171
Rp172
(lp173
F0.7343312501907349
abag2
(g3
g4
Ntp174
Rp175
(lp176
F1.0547306537628174
abag2
(g50
g4
Ntp177
Rp178
(lp179
(F2.0821523666381836
F1.9755067825317383
F2.1350274085998535
F1.9452327489852905
F1.9680615663528442
F2.1563024520874023
F1.9599173069000244
F1.9931718111038208
F2.1825945377349854
F2.3110527992248535
F2.101957321166992
F2.253859758377075
F2.232738494873047
F2.3901631832122803
F2.120875358581543
F2.263137102127075
F2.503251791000366
F2.4754297733306885
F2.404445171356201
F2.444159507751465
F2.6016836166381836
F2.4863104820251465
F2.3453524112701416
F2.380908966064453
F2.7211170196533203
F2.775106430053711
F2.7014904022216797
F2.686164379119873
F2.599796772003174
F3.0603883266448975
Fnan
F2.9208786487579346
F3.119007110595703
Fnan
F3.1265037059783936
F3.4280173778533936
F3.3861255645751953
F3.389064311981201
F3.7605650424957275
F3.595109701156616
F3.9053661823272705
F3.877140998840332
F4.129220485687256
F4.353814125061035
F4.589628219604492
F4.671711444854736
F4.854603290557861
F5.248800754547119
F5.318615436553955
Fnan
Fnan
Fnan
Fnan
Fnan
tp180
ababaa(lp181
g2
(g3
g4
Ntp182
Rp183
(lp184
F0.7853981633974483
abag2
(g3
g4
Ntp185
Rp186
(lp187
F1.0
abag2
(g11
g4
Ntp188
Rp189
(lp190
g2
(g15
g4
Ntp191
Rp192
(lp193
S'mobile_base'
p194
ag2
(g20
g4
Ntp195
Rp196
(lp197
g2
(g24
g4
Ntp198
Rp199
(lp200
F8.828200221685371
aF3.8325343960620066
aF-0.0011307623364528452
abag2
(g28
g4
Ntp201
Rp202
(lp203
F0.0015511638984007387
aF-0.0036854191082109806
aF0.38179703999454107
aF0.9242375408021273
ababag2
(g32
g4
Ntp204
Rp205
(lp206
g2
(g36
g4
Ntp207
Rp208
(lp209
F-0.00012821269553714272
aF0.00015823485540407436
aF7.213856111471523e-06
abag2
(g36
g4
Ntp210
Rp211
(lp212
F0.00020681041424220128
aF0.00017093105146986646
aF-0.0003509254458765943
ababag43
abag2
(g3
g4
Ntp213
Rp214
(lp215
F0.8660115003585815
abag2
(g3
g4
Ntp216
Rp217
(lp218
F1.0213426351547241
abag2
(g50
g4
Ntp219
Rp220
(lp221
(F1.318617582321167
F1.2717646360397339
F1.2407370805740356
F1.2599109411239624
F1.421822428703308
F1.2295353412628174
F1.1352373361587524
F1.2984919548034668
F1.4288636445999146
F1.5311932563781738
F1.3818055391311646
F1.4674686193466187
F1.3095245361328125
F1.3856147527694702
F1.4144515991210938
F1.3727344274520874
F1.4908897876739502
F1.7175503969192505
F1.2230826616287231
F1.6020036935806274
F1.7233436107635498
F1.6504673957824707
F1.5589343309402466
F1.6946165561676025
F1.4810794591903687
F1.6978286504745483
F1.6494582891464233
F1.920577049255371
F1.6798495054244995
F1.877287745475769
Fnan
F1.9663890600204468
F1.9130176305770874
Fnan
F1.9548264741897583
F2.286740779876709
F2.2772226333618164
F2.2028331756591797
F2.4035604000091553
F2.3965728282928467
F2.390218496322632
F2.456272840499878
F2.855248212814331
F2.8256680965423584
F2.816429376602173
F3.024603843688965
F3.2507200241088867
F3.2430241107940674
F3.4796130657196045
F3.5228164196014404
F3.7286758422851562
F4.085427284240723
F4.50248908996582
F4.696847438812256
tp222
ababaa(lp223
g2
(g3
g4
Ntp224
Rp225
(lp226
F1.5707963267948966
abag2
(g3
g4
Ntp227
Rp228
(lp229
F0.0
abag2
(g11
g4
Ntp230
Rp231
(lp232
g2
(g15
g4
Ntp233
Rp234
(lp235
S'mobile_base'
p236
ag2
(g20
g4
Ntp237
Rp238
(lp239
g2
(g24
g4
Ntp240
Rp241
(lp242
F8.82785988385508
aF3.832927842235174
aF-0.0011307222574522269
abag2
(g28
g4
Ntp243
Rp244
(lp245
F0.002850793874046637
aF-0.002803742931976039
aF0.7074712920415642
aF0.7067307711829864
ababag2
(g32
g4
Ntp246
Rp247
(lp248
g2
(g36
g4
Ntp249
Rp250
(lp251
F-0.00023586743008014536
aF3.325425048305119e-05
aF3.755101368690859e-05
abag2
(g36
g4
Ntp252
Rp253
(lp254
F0.00015601963287654395
aF0.00029920060216816945
aF-0.00034059170349867544
ababag43
abag2
(g3
g4
Ntp255
Rp256
(lp257
F1.5458428859710693
abag2
(g3
g4
Ntp258
Rp259
(lp260
F-0.2206478714942932
abag2
(g50
g4
Ntp261
Rp262
(lp263
(F2.2674572467803955
F2.5383434295654297
F2.694465160369873
F2.6598448753356934
F2.793555974960327
F2.834961175918579
F2.876964569091797
F3.155078411102295
F3.1994638442993164
F3.339589834213257
F3.5738673210144043
F3.6708428859710693
F4.069594860076904
F4.542331218719482
F4.828117847442627
Fnan
Fnan
Fnan
Fnan
Fnan
Fnan
Fnan
Fnan
Fnan
Fnan
Fnan
Fnan
Fnan
Fnan
Fnan
Fnan
Fnan
Fnan
Fnan
Fnan
Fnan
Fnan
Fnan
Fnan
Fnan
F3.2594010829925537
F3.171125650405884
F3.216754198074341
F3.1347970962524414
F2.9001476764678955
F3.045997142791748
F2.855612277984619
F2.9972355365753174
F3.0901715755462646
F2.887897253036499
F3.0284483432769775
F2.8347387313842773
F2.758636951446533
F2.879817485809326
tp264
ababaa(lp265
g2
(g3
g4
Ntp266
Rp267
(lp268
F1.5707963267948966
abag2
(g3
g4
Ntp269
Rp270
(lp271
F1.0
abag2
(g11
g4
Ntp272
Rp273
(lp274
g2
(g15
g4
Ntp275
Rp276
(lp277
S'mobile_base'
p278
ag2
(g20
g4
Ntp279
Rp280
(lp281
g2
(g24
g4
Ntp282
Rp283
(lp284
F8.827614424264167
aF4.832950398444518
aF-0.0011311847332061975
abag2
(g28
g4
Ntp285
Rp286
(lp287
F0.002888045278269931
aF-0.002766227438416677
aF0.7070520546075176
aF0.7071501956837158
ababag2
(g32
g4
Ntp288
Rp289
(lp290
g2
(g36
g4
Ntp291
Rp292
(lp293
F-0.0016976971806793668
aF6.546527761749868e-06
aF-3.304283350141332e-05
abag2
(g36
g4
Ntp294
Rp295
(lp296
F-6.133936459164659e-05
aF0.01205846678132208
aF-0.0020979598053525914
ababag43
abag2
(g3
g4
Ntp297
Rp298
(lp299
F1.5253334045410156
abag2
(g3
g4
Ntp300
Rp301
(lp302
F1.0471506118774414
abag2
(g50
g4
Ntp303
Rp304
(lp305
(F2.328850507736206
F2.4280881881713867
F2.532177448272705
F2.5847573280334473
F2.6484501361846924
F2.8267102241516113
F3.221526861190796
F3.1439480781555176
F3.340221881866455
F3.358504056930542
F3.7505083084106445
F3.767652988433838
F4.186636447906494
F4.428430557250977
F4.743723392486572
Fnan
Fnan
Fnan
Fnan
Fnan
Fnan
Fnan
Fnan
Fnan
Fnan
Fnan
Fnan
Fnan
Fnan
Fnan
Fnan
Fnan
Fnan
Fnan
Fnan
Fnan
Fnan
Fnan
Fnan
Fnan
Fnan
Fnan
Fnan
Fnan
Fnan
F2.2513344287872314
F2.3118832111358643
F2.1418445110321045
F2.2760767936706543
F2.250703811645508
F2.4171035289764404
F2.2315561771392822
F2.1199324131011963
F2.1666836738586426
tp306
ababaa(lp307
g2
(g3
g4
Ntp308
Rp309
(lp310
F1.5707963267948966
abag2
(g3
g4
Ntp311
Rp312
(lp313
F1.0
abag2
(g11
g4
Ntp314
Rp315
(lp316
g2
(g15
g4
Ntp317
Rp318
(lp319
S'mobile_base'
p320
ag2
(g20
g4
Ntp321
Rp322
(lp323
g2
(g24
g4
Ntp324
Rp325
(lp326
F8.827504558890334
aF5.83296353794208
aF-0.0011307529810516137
abag2
(g28
g4
Ntp327
Rp328
(lp329
F0.0028382675472043407
aF-0.0028164806460667774
aF0.7071652778590111
aF0.7070369731949585
ababag2
(g32
g4
Ntp330
Rp331
(lp332
g2
(g36
g4
Ntp333
Rp334
(lp335
F-0.00030349495161869646
aF1.2856569870617274e-05
aF1.2727469456652895e-05
abag2
(g36
g4
Ntp336
Rp337
(lp338
F1.6345251357636003e-05
aF0.0007071147936575676
aF-0.000461321760451375
ababag43
abag2
(g3
g4
Ntp339
Rp340
(lp341
F1.7045748233795166
abag2
(g3
g4
Ntp342
Rp343
(lp344
F0.6986522674560547
abag2
(g50
g4
Ntp345
Rp346
(lp347
(F2.374366044998169
F2.344820022583008
F2.561922311782837
F2.504350185394287
F2.7475268840789795
F2.915034770965576
F2.9165029525756836
F3.2025840282440186
F3.259296417236328
F3.5368094444274902
F3.604003667831421
F3.990870714187622
F4.0379862785339355
F4.607015132904053
F4.256916522979736
F4.356353282928467
F4.321394443511963
F4.230895042419434
F4.006524562835693
F4.326774597167969
F4.30968713760376
F4.241934299468994
F4.275993347167969
F4.507900714874268
F4.268511772155762
F4.259186744689941
F4.202077865600586
F4.298779010772705
F4.330638885498047
F4.2068939208984375
Fnan
F4.290891647338867
F4.217916965484619
Fnan
F4.097786903381348
F4.265496730804443
F4.24730920791626
F4.296643257141113
F4.456728935241699
F4.3923563957214355
F4.448968887329102
F4.65871000289917
F4.477871894836426
F4.522889137268066
F4.54730749130249
F4.478137969970703
F4.6149821281433105
F4.551812648773193
F4.471651554107666
F4.403863430023193
F4.578092098236084
F4.500742435455322
F4.370782375335693
F4.524035453796387
tp348
ababaa(lp349
g2
(g3
g4
Ntp350
Rp351
(lp352
F1.5707963267948966
abag2
(g3
g4
Ntp353
Rp354
(lp355
F1.0
abag2
(g11
g4
Ntp356
Rp357
(lp358
g2
(g15
g4
Ntp359
Rp360
(lp361
S'mobile_base'
p362
ag2
(g20
g4
Ntp363
Rp364
(lp365
g2
(g24
g4
Ntp366
Rp367
(lp368
F8.827402939980086
aF6.832970593332717
aF-0.0011307231651073169
abag2
(g28
g4
Ntp369
Rp370
(lp371
F0.002849341554437332
aF-0.002805229550142904
aF0.7069802832067308
aF0.707221953206211
ababag2
(g32
g4
Ntp372
Rp373
(lp374
g2
(g36
g4
Ntp375
Rp376
(lp377
F-0.00018541766796449326
aF3.569828961225497e-05
aF3.746680931960758e-05
abag2
(g36
g4
Ntp378
Rp379
(lp380
F0.00015667706136275828
aF-1.665963203392704e-05
aF-0.00031190538582634984
ababag43
abag2
(g3
g4
Ntp381
Rp382
(lp383
F1.7134552001953125
abag2
(g3
g4
Ntp384
Rp385
(lp386
F1.2112740278244019
abag2
(g50
g4
Ntp387
Rp388
(lp389
(F2.00940203666687
F2.477510452270508
F2.448401927947998
F2.51358962059021
F2.946159601211548
F2.803776502609253
F2.9493916034698486
F3.087994337081909
F3.2413880825042725
F3.485860586166382
F3.508491039276123
F3.380180835723877
F3.559825897216797
F3.381012201309204
F3.341600179672241
F3.235639810562134
F3.2102324962615967
F3.2639811038970947
F3.172431707382202
F3.2836105823516846
F3.3137686252593994
F3.3442578315734863
F3.252007007598877
F3.3264412879943848
F3.2884585857391357
F3.3279058933258057
F3.2841455936431885
F3.1731653213500977
F3.4617347717285156
F3.168372631072998
Fnan
F3.3411059379577637
F3.2464425563812256
Fnan
F3.3168106079101562
F3.4485390186309814
F3.3952677249908447
F3.3989181518554688
F3.2982137203216553
F3.277656078338623
F3.3966567516326904
F3.656615734100342
F3.314459800720215
F3.5313405990600586
F3.6002414226531982
F3.536407470703125
F3.4671034812927246
F3.765881299972534
F3.514636516571045
F3.605193853378296
F3.647756338119507
F3.7469429969787598
F3.6798131465911865
F4.019278049468994
tp390
ababaa(lp391
g2
(g3
g4
Ntp392
Rp393
(lp394
F1.5707963267948966
abag2
(g3
g4
Ntp395
Rp396
(lp397
F1.0
abag2
(g11
g4
Ntp398
Rp399
(lp400
g2
(g15
g4
Ntp401
Rp402
(lp403
S'mobile_base'
p404
ag2
(g20
g4
Ntp405
Rp406
(lp407
g2
(g24
g4
Ntp408
Rp409
(lp410
F8.82732306402346
aF7.8329772396779305
aF-0.001130745605932959
abag2
(g28
g4
Ntp411
Rp412
(lp413
F0.002829506963731324
aF-0.0028252309081573954
aF0.7070503588619734
aF0.7071518945699095
ababag2
(g32
g4
Ntp414
Rp415
(lp416
g2
(g36
g4
Ntp417
Rp418
(lp419
F-0.0005680349273779553
aF7.075915877960745e-06
aF1.179629132836963e-05
abag2
(g36
g4
Ntp420
Rp421
(lp422
F2.025009002007669e-05
aF0.0027963157524535987
aF-0.000724623259794311
ababag43
abag2
(g3
g4
Ntp423
Rp424
(lp425
F1.5702990293502808
abag2
(g3
g4
Ntp426
Rp427
(lp428
F1.0621757507324219
abag2
(g50
g4
Ntp429
Rp430
(lp431
(F2.23954701423645
F2.496220350265503
F2.578937530517578
F2.3145852088928223
F2.480250835418701
F2.543837070465088
F2.5156755447387695
F2.378995656967163
F2.399984836578369
F2.6213064193725586
F2.256368637084961
F2.4194982051849365
F2.376847743988037
F2.3672397136688232
F2.392484426498413
F2.3434653282165527
F2.4914181232452393
F2.32967472076416
F2.466313123703003
F2.3010058403015137
F2.3163020610809326
F2.4020166397094727
F2.4231321811676025
F2.203350305557251
F2.3808319568634033
F2.486525297164917
F2.3625783920288086
F2.1359071731567383
F2.4720523357391357
F2.213716745376587
Fnan
F2.1080551147460938
F2.353480100631714
Fnan
F2.248044729232788
F2.432006597518921
F2.307014226913452
F2.4594218730926514
F2.1967411041259766
F2.3538084030151367
F2.2229011058807373
F2.4683406352996826
F2.4144771099090576
F2.3811092376708984
F2.386340379714966
F2.445300579071045
F2.4821131229400635
F2.518526077270508
F2.6215732097625732
F2.4090895652770996
F2.588771104812622
F2.58197021484375
F2.53755259513855
F2.5511765480041504
tp432
ababaa(lp433
g2
(g3
g4
Ntp434
Rp435
(lp436
F1.5707963267948966
abag2
(g3
g4
Ntp437
Rp438
(lp439
F1.0
abag2
(g11
g4
Ntp440
Rp441
(lp442
g2
(g15
g4
Ntp443
Rp444
(lp445
S'mobile_base'
p446
ag2
(g20
g4
Ntp447
Rp448
(lp449
g2
(g24
g4
Ntp450
Rp451
(lp452
F8.827210464655192
aF8.832983804251844
aF-0.001130748381977964
abag2
(g28
g4
Ntp453
Rp454
(lp455
F0.002846680228284474
aF-0.002808070404420377
aF0.707055586471634
aF0.7071466671006343
ababag2
(g32
g4
Ntp456
Rp457
(lp458
g2
(g36
g4
Ntp459
Rp460
(lp461
F-0.0001825622405327052
aF1.657175083618175e-05
aF7.323611111905862e-06
abag2
(g36
g4
Ntp462
Rp463
(lp464
F2.614948549184743e-05
aF0.00020687740325694908
aF-0.0003315931745432706
ababag43
abag2
(g3
g4
Ntp465
Rp466
(lp467
F1.5473806858062744
abag2
(g3
g4
Ntp468
Rp469
(lp470
F0.9397262334823608
abag2
(g50
g4
Ntp471
Rp472
(lp473
(F1.5343601703643799
F1.4086512327194214
F1.437576174736023
F1.3988717794418335
F1.2753874063491821
F1.2739949226379395
F1.418778657913208
F1.469802737236023
F1.4698278903961182
F1.3540525436401367
F1.3171923160552979
F1.2924432754516602
F1.2790340185165405
F1.4314748048782349
F1.1850394010543823
F1.3008512258529663
F1.3990226984024048
F1.2563772201538086
F1.1359076499938965
F1.2646509408950806
F1.3203760385513306
F1.1016864776611328
F1.2976406812667847
F1.2856861352920532
F1.102118730545044
F1.2423665523529053
F1.458976149559021
F1.2025833129882812
F1.1177211999893188
F1.2153903245925903
Fnan
F1.2058120965957642
F1.3904309272766113
Fnan
F1.1308493614196777
F1.3625779151916504
F1.1324527263641357
F1.2586781978607178
F1.257517695426941
F1.3733280897140503
F1.4617958068847656
F1.1736714839935303
F1.386951208114624
F1.3641237020492554
F1.387961745262146
F1.4351999759674072
F1.3764597177505493
F1.3651081323623657
F1.4331849813461304
F1.234438180923462
F1.3611440658569336
F1.6055161952972412
F1.5682021379470825
F1.4216450452804565
tp474
ababaa(lp475
g2
(g3
g4
Ntp476
Rp477
(lp478
F1.5707963267948966
abag2
(g3
g4
Ntp479
Rp480
(lp481
F0.0
abag2
(g11
g4
Ntp482
Rp483
(lp484
g2
(g15
g4
Ntp485
Rp486
(lp487
S'mobile_base'
p488
ag2
(g20
g4
Ntp489
Rp490
(lp491
g2
(g24
g4
Ntp492
Rp493
(lp494
F8.826235454002257
aF8.833075013679066
aF-0.0011307145491204484
abag2
(g28
g4
Ntp495
Rp496
(lp497
F0.0028456846460677187
aF-0.0028089189302048815
aF0.7069770978135174
aF0.7072251375767941
ababag2
(g32
g4
Ntp498
Rp499
(lp500
g2
(g36
g4
Ntp501
Rp502
(lp503
F-0.0001436228255544764
aF3.6031801266153275e-05
aF3.823437392851133e-05
abag2
(g36
g4
Ntp504
Rp505
(lp506
F0.0001612108112744959
aF-0.00013251716702490678
aF-0.0002576913475429068
ababag43
abag2
(g3
g4
Ntp507
Rp508
(lp509
F1.570824384689331
abag2
(g3
g4
Ntp510
Rp511
(lp512
F0.1069871336221695
abag2
(g50
g4
Ntp513
Rp514
(lp515
(F1.6249146461486816
F1.311848759651184
F1.508936882019043
F1.3781921863555908
F1.4577016830444336
F1.2555766105651855
F1.2928974628448486
F1.3659148216247559
F1.2403925657272339
F1.3216499090194702
F1.3849897384643555
F1.3915780782699585
F1.3898667097091675
F1.2226935625076294
F1.4615004062652588
F1.4537814855575562
F1.159783124923706
F1.3720265626907349
F1.2816780805587769
F1.0982699394226074
F1.23566472530365
F1.0877686738967896
F1.1901557445526123
F1.32072114944458
F1.1906497478485107
F1.233911156654358
F1.5341333150863647
F1.0753796100616455
F1.3698416948318481
F1.2632348537445068
Fnan
F1.4114174842834473
F1.2578020095825195
Fnan
F1.2233002185821533
F1.4795626401901245
F1.3633723258972168
F1.279293417930603
F1.1837512254714966
F1.2566384077072144
F1.327883005142212
F1.1174482107162476
F1.2284917831420898
F1.1989470720291138
F1.3001595735549927
F1.4104005098342896
F1.4523874521255493
F1.3934890031814575
F1.5503220558166504
F1.2156769037246704
F1.3107866048812866
F1.4100462198257446
F1.5271532535552979
F1.6395453214645386
tp516
ababaa.